ccopy_reg
_reconstructor
p0
(cdigits.pretrained_model.job
PretrainedModelJob
p1
c__builtin__
object
p2
Ntp3
Rp4
(dp5
S'username'
p6
Vdigits-testsuite
p7
sS'tasks'
p8
(lp9
g0
(cdigits.pretrained_model.tasks.caffe_upload
CaffeUploadTask
p10
g2
Ntp11
Rp12
(dp13
S'node'
p14
S''
p15
sS'model_def_path'
p16
S'/data/zim021/digits-proj/DIGITS/tmp/tmpCNno3G.prototxt'
p17
sS'weights_path'
p18
S'/data/zim021/digits-proj/DIGITS/tmp/tmpQZFC8q.caffemodel'
p19
sS'job_num'
p20
g15
sS'labels_path'
p21
S'/data/zim021/digits-proj/DIGITS/tmp/tmpRJF0nk.txt'
p22
sS'framework'
p23
NsS'system_type'
p24
S'slurm'
p25
sS'gpu'
p26
NsS'pickver_task'
p27
I1
sS'exception'
p28
NsS'current_resources'
p29
NsS'job_id'
p30
S'20161209-112702-483c'
p31
sS'traceback'
p32
NsS'job_dir'
p33
S'/data/zim021/digits-proj/DIGITS/tmp/tmpyzXVAu/20161209-112702-483c'
p34
sS'parents'
p35
NsS'image_info'
p36
(dp37
S'image_type'
p38
V3
p39
sS'width'
p40
V10
p41
sS'resize_mode'
p42
Vsquash
p43
sS'height'
p44
V10
p45
ssS'progress'
p46
F1.0
sS'status_history'
p47
(lp48
((idigits.status
Status
p49
S'I'
p51
bF1481243222.516069
tp52
a((idigits.status
Status
p53
S'D'
p54
bF1481243222.606779
tp55
asbasS'_name'
p56
Vtest_create_pretrained_model_job
p57
sg23
Vcaffe
p58
sg36
g37
sS'_id'
p59
S'20161209-112702-483c'
p60
sg47
(lp61
((idigits.status
Status
p62
g51
bF1481243222.515744
tp63
a((idigits.status
Status
p64
S'R'
p65
bF1481243222.60274
tp66
a((idigits.status
Status
p67
g54
bF1481243222.654359
tp68
asb.