ccopy_reg
_reconstructor
p0
(cdigits.model.images.classification.job
ImageClassificationModelJob
p1
c__builtin__
object
p2
Ntp3
Rp4
(dp5
S'username'
p6
Vdigits-testsuite
p7
sS'_notes'
p8
NsS'tasks'
p9
(lp10
g0
(cdigits.model.tasks.caffe_train
CaffeTrainTask
p11
g2
Ntp12
Rp13
(dp14
S'shuffle'
p15
I00
sS'train_outputs'
p16
ccollections
OrderedDict
p17
((lp18
(lp19
S'epoch'
p20
ag0
(cdigits.model.tasks.train
NetworkOutput
p21
c__builtin__
tuple
p22
(S'Epoch'
p23
(lp24
I0
aF0.3333333333333333
aF0.6666666666666666
atp25
tp26
Rp27
aa(lp28
S'loss'
p29
ag0
(g21
g22
(S'SoftmaxWithLoss'
p30
(lp31
F1.09861
aF0.0
aF0.0
atp32
tp33
Rp34
aa(lp35
S'learning_rate'
p36
ag0
(g21
g22
(S'LearningRate'
p37
(lp38
F0.01
aF0.001
aF0.0001
atp39
tp40
Rp41
aatp42
Rp43
sS'loaded_snapshot_epoch'
p44
NsS'pretrained_model'
p45
V
p46
sS'deploy_file'
p47
S'deploy.prototxt'
p48
sS'gpu_count'
p49
I1
sS'job_id'
p50
S'20161209-112636-ccb2'
p51
sS'parents'
p52
NsS'caffe_flavor'
p53
S'BVLC'
p54
sS'receiving_train_output'
p55
I00
sS'current_epoch'
p56
F1.0
sS'random_seed'
p57
I3405691582
sS'current_resources'
p58
NsS'exception'
p59
NsS'selected_gpus'
p60
NsS'solver'
p61
ccaffe_pb2
SolverParameter
p62
(tRp63
(dp64
S'serialized'
p65
S'\x18\x01 \x03-\n\xd7#<0\x018\x03B\x04stepM\xcd\xcc\xcc=]fff?e\x17\xb7\xd18h\x01p\x00z\x08snapshot\x88\x01\x01\xa0\x01\xbe\xf5\xfa\xd7\x0c\xc2\x01\x12train_val.prototxt\xf0\x01\x00'
p66
sbsS'framework_id'
p67
S'caffe'
p68
sS'last_train_update'
p69
F1481243200.44099
sS'train_val_file'
p70
S'train_val.prototxt'
p71
sS's_cpu_count'
p72
I8
sS'caffe_version'
p73
S'1.0.0-rc3'
p74
sS'solver_file'
p75
S'solver.prototxt'
p76
sS'val_outputs'
p77
g17
((lp78
(lp79
g20
ag0
(g21
g22
(g23
(lp80
I0
aF1.0
atp81
tp82
Rp83
aa(lp84
S'accuracy'
p85
ag0
(g21
g22
(S'Accuracy'
p86
(lp87
F0.3
aF1.0
atp88
tp89
Rp90
aa(lp91
S'loss'
p92
ag0
(g21
g22
(S'SoftmaxWithLoss'
p93
(lp94
F1.09861
aF0.0
atp95
tp96
Rp97
aatp98
Rp99
sS'time_limit'
p100
NsS'snapshot_interval'
p101
I1
sS'job_num'
p102
S'4016487'
p103
sS'system_type'
p104
S'slurm'
p105
sS'current_iteration'
p106
I3
sS'crop_size'
p107
NsS's_mem'
p108
I30
sS'train_epochs'
p109
I1
sS'network'
p110
ccaffe_pb2
NetParameter
p111
(tRp112
(dp113
g65
S'\xa2\x06$\n\x06hidden\x12\x0cInnerProduct\x1a\x04data"\x06output\xa2\x066\n\x04loss\x12\x0fSoftmaxWithLoss\x1a\x06output\x1a\x05label"\x04lossJ\x08"\x06deploy\xa2\x064\n\x08accuracy\x12\x08Accuracy\x1a\x06output\x1a\x05label"\x08accuracyB\x05"\x03val\xa2\x06-\n\x07softmax\x12\x07Softmax\x1a\x06output"\x07softmaxB\x08"\x06deploy'
p114
sbsS'use_mean'
p115
Vimage
p116
sS'model_file'
p117
S'original.prototxt'
p118
sS'job_dir'
p119
S'/data/zim021/digits-proj/DIGITS/tmp/tmpyzXVAu/20161209-112636-ccb2'
p120
sS'receiving_val_output'
p121
I00
sS'progress'
p122
F1.0
sS'lr_policy'
p123
(dp124
S'policy'
p125
Vstep
p126
sS'stepsize'
p127
I33
sS'gamma'
p128
F0.1
ssS'loaded_snapshot_file'
p129
NsS'val_interval'
p130
I1
sS'node'
p131
S''
p132
sS'rms_decay'
p133
F0.99
sS'saving_snapshot'
p134
I00
sS'pickver_task_caffe_train'
p135
I5
sg36
F0.01
sS'digits_version'
p136
S'5.1-dev'
p137
sS'batch_size'
p138
I10
sS'job'
p139
g4
sS'pickver_task_train'
p140
I2
sS'pickver_task'
p141
I1
sS'data_aug'
p142
(dp143
S'scale'
p144
I0
sS'hsv_use'
p145
I00
sS'flip'
p146
Vnone
p147
sS'quad_rot'
p148
Vnone
p149
sS'noise'
p150
I0
sS'hsv_h'
p151
F0.02
sS'hsv_s'
p152
F0.04
sS'rot'
p153
I0
sS'hsv_v'
p154
F0.06
ssS'snapshot_prefix'
p155
S'snapshot'
p156
sS'traceback'
p157
NsS'status_history'
p158
(lp159
((idigits.status
Status
p160
S'I'
p162
bF1481243197.006537
tp163
a((idigits.status
Status
p164
S'R'
p165
bF1481243197.032236
tp166
a((idigits.status
Status
p167
S'D'
p168
bF1481243201.830015
tp169
asS'image_mean'
p170
NsS'batch_accumulation'
p171
NsS'log_file'
p172
S'caffe_output.log'
p173
sS'solver_type'
p174
VSGD
p175
sbasS'pickver_job'
p176
I2
sS'dataset_id'
p177
S'20161209-112627-3556'
p178
sS'_name'
p179
Vtest_model
p180
sS'pickver_job_model_image'
p181
I1
sg59
NsS'group'
p182
Vtest_group
p183
sS'persistent'
p184
I01
sS'form_data'
p185
(dp186
S'form.standard_networks.data'
p187
VNone
p188
sS'form.learning_rate.data'
p189
(lp190
F0.01
asS'form.aug_flip.data'
p191
g147
sS'form.select_gpus.data'
p192
(lp193
sS'form.framework.data'
p194
Vcaffe
p195
sS'form.dataset.data'
p196
V20161209-112627-3556
p197
sS'form.python_layer_from_client.data'
p198
I00
sS'form.lr_multistep_values.data'
p199
g46
sS'form.slurm_mem.data'
p200
I30
sS'form.slurm_time_limit.data'
p201
NsS'form.aug_hsv_s.data'
p202
F0.04
sS'form.lr_sigmoid_gamma.data'
p203
F0.1
sS'form.lr_policy.data'
p204
g126
sS'form.previous_networks.data'
p205
VNone
p206
sS'form.python_layer_client_file.data'
p207
g46
sS'form.select_gpu.data'
p208
Vnext
p209
sS'form.aug_quad_rot.data'
p210
g149
sS'form.rms_decay.data'
p211
F0.99
sS'form.slurm_selector.data'
p212
I00
sS'form.lr_sigmoid_step.data'
p213
I50
sS'form.crop_size.data'
p214
NsS'form.select_gpu_count.data'
p215
I1
sS'form.aug_hsv_v.data'
p216
F0.06
sS'form.python_layer_server_file.data'
p217
g46
sS'form.custom_network.data'
p218
V\u000alayer {\u000a    name: "hidden"\u000a    type: 'InnerProduct'\u000a    bottom: "data"\u000a    top: "output"\u000a}\u000alayer {\u000a    name: "loss"\u000a    type: "SoftmaxWithLoss"\u000a    bottom: "output"\u000a    bottom: "label"\u000a    top: "loss"\u000a    exclude { stage: "deploy" }\u000a}\u000alayer {\u000a    name: "accuracy"\u000a    type: "Accuracy"\u000a    bottom: "output"\u000a    bottom: "label"\u000a    top: "accuracy"\u000a    include { stage: "val" }\u000a}\u000alayer {\u000a    name: "softmax"\u000a    type: "Softmax"\u000a    bottom: "output"\u000a    top: "softmax"\u000a    include { stage: "deploy" }\u000a}\u000a
p219
sS'form.pretrained_networks.data'
p220
VNone
p221
sS'form.solver_type.data'
p222
g175
sS'form.aug_noise.data'
p223
I0
sS'form.select_gpus_list.data'
p224
g46
sS'form.slurm_cpu_count.data'
p225
I8
sS'form.shuffle.data'
p226
I00
sS'form.aug_scale.data'
p227
I0
sS'form.batch_accumulation.data'
p228
NsS'form.batch_size.data'
p229
(lp230
I10
asS'form.lr_inv_power.data'
p231
F0.5
sS'form.group_name.data'
p232
g183
sS'form.use_mean.data'
p233
g116
sS'form.lr_inv_gamma.data'
p234
F0.1
sS'form.lr_step_gamma.data'
p235
F0.1
sS'form.snapshot_interval.data'
p236
I1
sS'form.lr_step_size.data'
p237
I33
sS'form.aug_hsv_use.data'
p238
I00
sS'form.method.data'
p239
Vcustom
p240
sS'form.aug_hsv_h.data'
p241
F0.02
sS'form.custom_network_snapshot.data'
p242
g46
sS'form.random_seed.data'
p243
I3405691582
sS'form.lr_multistep_gamma.data'
p244
F0.5
sS'form.model_name.data'
p245
g180
sS'form.lr_exp_gamma.data'
p246
F0.95
sS'form.val_interval.data'
p247
I1
sS'form.aug_rot.data'
p248
I0
sS'form.train_epochs.data'
p249
I1
sS'form.lr_poly_power.data'
p250
I3
ssg122
F1.0
sS'_id'
p251
S'20161209-112636-ccb2'
p252
sS'pickver_job_dataset'
p253
I1
sg158
(lp254
((idigits.status
Status
p255
g162
bF1481243197.00405
tp256
a((idigits.status
Status
p257
g165
bF1481243197.021392
tp258
a((idigits.status
Status
p259
g168
bF1481243201.871086
tp260
asS'pickver_job_model_image_classification'
p261
I1
sb.