ccopy_reg
_reconstructor
p0
(cdigits.pretrained_model.job
PretrainedModelJob
p1
c__builtin__
object
p2
Ntp3
Rp4
(dp5
S'username'
p6
Va
p7
sS'tasks'
p8
(lp9
g0
(cdigits.pretrained_model.tasks.caffe_upload
CaffeUploadTask
p10
g2
Ntp11
Rp12
(dp13
S'node'
p14
S''
p15
sS'model_def_path'
p16
S'/data/zim021/digits-proj/DIGITS/digits/jobs/20161129-152227-598c/original.prototxt'
p17
sS'weights_path'
p18
S'/data/zim021/digits-proj/DIGITS/digits/jobs/20161129-152227-598c/snapshot_iter_21120.caffemodel'
p19
sS'job_num'
p20
g15
sS'labels_path'
p21
S'/data/zim021/digits-proj/DIGITS/digits/jobs/20161125-161231-08c0/labels.txt'
p22
sS'framework'
p23
NsS'system_type'
p24
S'slurm'
p25
sS'progress'
p26
F1.0
sS'pickver_task'
p27
I1
sS'exception'
p28
NsS'current_resources'
p29
NsS'job_id'
p30
S'20161129-152951-6b87'
p31
sS'traceback'
p32
NsS'job_dir'
p33
S'/data/zim021/digits-proj/DIGITS/digits/jobs/20161129-152951-6b87'
p34
sS'parents'
p35
NsS'image_info'
p36
(dp37
S'image_type'
p38
I3
sS'width'
p39
I28
sS'resize_mode'
p40
Vsquash
p41
sS'height'
p42
I28
ssS'gpu'
p43
NsS'status_history'
p44
(lp45
((idigits.status
Status
p46
S'I'
p48
bF1480393791.688029
tp49
a((idigits.status
Status
p50
S'D'
p51
bF1480393793.2065
tp52
asbasS'_name'
p53
Vsadsadasdsdasda
p54
sS'framework'
p55
S'caffe'
p56
sS'image_info'
p57
g37
sS'_id'
p58
S'20161129-152951-6b87'
p59
sS'status_history'
p60
(lp61
((idigits.status
Status
p62
g48
bF1480393791.68705
tp63
a((idigits.status
Status
p64
S'R'
p65
bF1480393792.896318
tp66
a((idigits.status
Status
p67
g51
bF1480393793.524553
tp68
a((idigits.status
Status
p69
g65
bF1480393793.712246
tp70
a((idigits.status
Status
p71
g51
bF1480393793.9606
tp72
asb.