ccopy_reg
_reconstructor
p0
(cdigits.model.images.generic.job
GenericImageModelJob
p1
c__builtin__
object
p2
Ntp3
Rp4
(dp5
S'username'
p6
Vdigits-testsuite
p7
sS'_notes'
p8
NsS'tasks'
p9
(lp10
g0
(cdigits.model.tasks.caffe_train
CaffeTrainTask
p11
g2
Ntp12
Rp13
(dp14
S'shuffle'
p15
I00
sS'train_outputs'
p16
ccollections
OrderedDict
p17
((lp18
(lp19
S'epoch'
p20
ag0
(cdigits.model.tasks.train
NetworkOutput
p21
c__builtin__
tuple
p22
(S'Epoch'
p23
(lp24
I0
aF0.1
aF0.2
aF0.3
aF0.4
aF0.5
aF0.6
aF0.7
aF0.8
aF0.9
aF1.0
aF1.1
aF1.2
aF1.3
aF1.4
aF1.5
aF1.6
aF1.7
aF1.8
aF1.9
aF2.0
aF2.1
aF2.2
aF2.3
aF2.4
aF2.5
aF2.6
aF2.7
aF2.8
aF2.9
atp25
tp26
Rp27
aa(lp28
S'loss'
p29
ag0
(g21
g22
(S'EuclideanLoss'
p30
(lp31
F0.0855033
aF0.0791454
aF0.0969902
aF0.0681049
aF0.0928923
aF0.0859426
aF0.0824573
aF0.0806286
aF0.0534158
aF0.061156
aF0.0646675
aF0.0567928
aF0.0688869
aF0.0477769
aF0.0651057
aF0.0590771
aF0.0562779
aF0.0573127
aF0.037544
aF0.04401
aF0.0488824
aF0.0433041
aF0.0525475
aF0.0370414
aF0.053659
aF0.0473623
aF0.0479627
aF0.0455808
aF0.0324419
aF0.0377875
atp32
tp33
Rp34
aa(lp35
S'learning_rate'
p36
ag0
(g21
g22
(S'LearningRate'
p37
(lp38
F0.01
aF0.01
aF0.01
aF0.01
aF0.01
aF0.01
aF0.01
aF0.01
aF0.01
aF0.01
aF0.001
aF0.001
aF0.001
aF0.001
aF0.001
aF0.001
aF0.001
aF0.001
aF0.001
aF0.001
aF0.0001
aF0.0001
aF0.0001
aF0.0001
aF0.0001
aF0.0001
aF0.0001
aF0.0001
aF0.0001
aF0.0001
atp39
tp40
Rp41
aatp42
Rp43
sS'loaded_snapshot_epoch'
p44
NsS'pretrained_model'
p45
V
p46
sS'deploy_file'
p47
S'deploy.prototxt'
p48
sS'gpu_count'
p49
I1
sS'job_id'
p50
S'20161209-112212-36fc'
p51
sS'parents'
p52
NsS'caffe_flavor'
p53
S'BVLC'
p54
sS'receiving_train_output'
p55
I00
sS'current_epoch'
p56
F3.0
sS'random_seed'
p57
I3405691582
sS'current_resources'
p58
NsS'exception'
p59
NsS'selected_gpus'
p60
NsS'solver'
p61
ccaffe_pb2
SolverParameter
p62
(tRp63
(dp64
S'serialized'
p65
S'\x18\x02 \n-\n\xd7#<0\x018\x1eB\x04stepM\xcd\xcc\xcc=]fff?e\x17\xb7\xd18h\np\nz\x08snapshot\x88\x01\x01\xa0\x01\xbe\xf5\xfa\xd7\x0c\xc2\x01\x12train_val.prototxt\xf0\x01\x00'
p66
sbsS'framework_id'
p67
S'caffe'
p68
sS'last_train_update'
p69
F1481242935.276111
sS'train_val_file'
p70
S'train_val.prototxt'
p71
sS's_cpu_count'
p72
I8
sS'caffe_version'
p73
S'1.0.0-rc3'
p74
sS'solver_file'
p75
S'solver.prototxt'
p76
sS'val_outputs'
p77
g17
((lp78
(lp79
g20
ag0
(g21
g22
(g23
(lp80
I0
aF1.0
aF2.0
aF3.0
atp81
tp82
Rp83
aa(lp84
S'loss'
p85
ag0
(g21
g22
(S'EuclideanLoss'
p86
(lp87
F0.0933352
aF0.0717276
aF0.0528933
aF0.0461073
atp88
tp89
Rp90
aatp91
Rp92
sS'time_limit'
p93
NsS'snapshot_interval'
p94
I1
sS'job_num'
p95
S'4016419'
p96
sS'system_type'
p97
S'slurm'
p98
sS'current_iteration'
p99
I30
sS'crop_size'
p100
NsS's_mem'
p101
I30
sS'train_epochs'
p102
I3
sS'network'
p103
ccaffe_pb2
NetParameter
p104
(tRp105
(dp106
g65
S'\xa2\x06\x1b\n\x04data\x12\x04Data"\x04dataB\x02\x08\x00\xa2\x06\x02\x18\x08\xa2\x06\x1b\n\x04data\x12\x04Data"\x04dataB\x02\x08\x01\xa2\x06\x02\x18\x08\xa2\x06#\n\x05scale\x12\x05Power\x1a\x04data"\x05scale\xd2\x07\x05\x15o\x12\x83;\xa2\x06*\n\x06hidden\x12\x0cInnerProduct\x1a\x05scale"\x06output\xaa\x07\x02\x08\x02\xa2\x064\n\x04loss\x12\rEuclideanLoss\x1a\x06output\x1a\x05label"\x04lossJ\x08"\x06deploy'
p107
sbsS'use_mean'
p108
Vimage
p109
sS'model_file'
p110
S'original.prototxt'
p111
sS'job_dir'
p112
S'/data/zim021/digits-proj/DIGITS/tmp/tmpyzXVAu/20161209-112212-36fc'
p113
sS'receiving_val_output'
p114
I00
sS'progress'
p115
F1.0
sS'lr_policy'
p116
(dp117
S'policy'
p118
Vstep
p119
sS'stepsize'
p120
I33
sS'gamma'
p121
F0.1
ssS'loaded_snapshot_file'
p122
NsS'val_interval'
p123
I1
sS'node'
p124
S''
p125
sS'rms_decay'
p126
F0.99
sS'saving_snapshot'
p127
I00
sS'pickver_task_caffe_train'
p128
I5
sg36
F0.01
sS'digits_version'
p129
S'5.1-dev'
p130
sS'batch_size'
p131
I10
sS'job'
p132
g4
sS'pickver_task_train'
p133
I2
sS'pickver_task'
p134
I1
sS'data_aug'
p135
(dp136
S'scale'
p137
I0
sS'hsv_use'
p138
I00
sS'flip'
p139
Vnone
p140
sS'quad_rot'
p141
Vnone
p142
sS'noise'
p143
I0
sS'hsv_h'
p144
F0.02
sS'hsv_s'
p145
F0.04
sS'rot'
p146
I0
sS'hsv_v'
p147
F0.06
ssS'snapshot_prefix'
p148
S'snapshot'
p149
sS'traceback'
p150
NsS'status_history'
p151
(lp152
((idigits.status
Status
p153
S'I'
p155
bF1481242932.095731
tp156
a((idigits.status
Status
p157
S'R'
p158
bF1481242932.123824
tp159
a((idigits.status
Status
p160
S'D'
p161
bF1481242936.686183
tp162
asS'image_mean'
p163
NsS'batch_accumulation'
p164
NsS'log_file'
p165
S'caffe_output.log'
p166
sS'solver_type'
p167
VSGD
p168
sbasS'pickver_job_model_image_generic'
p169
I1
sS'pickver_job'
p170
I2
sS'dataset_id'
p171
S'20161209-112205-50db'
p172
sS'_name'
p173
Vtest_model
p174
sS'pickver_job_model_image'
p175
I1
sg59
NsS'group'
p176
Vtest_group
p177
sS'persistent'
p178
I01
sS'form_data'
p179
(dp180
S'form.standard_networks.data'
p181
VNone
p182
sS'form.learning_rate.data'
p183
(lp184
F0.01
asS'form.aug_flip.data'
p185
g140
sS'form.select_gpus.data'
p186
(lp187
sS'form.framework.data'
p188
Vcaffe
p189
sS'form.dataset.data'
p190
V20161209-112205-50db
p191
sS'form.python_layer_from_client.data'
p192
I00
sS'form.lr_multistep_values.data'
p193
g46
sS'form.slurm_mem.data'
p194
I30
sS'form.slurm_time_limit.data'
p195
NsS'form.aug_hsv_s.data'
p196
F0.04
sS'form.lr_sigmoid_gamma.data'
p197
F0.1
sS'form.lr_policy.data'
p198
g119
sS'form.previous_networks.data'
p199
VNone
p200
sS'form.python_layer_client_file.data'
p201
g46
sS'form.select_gpu.data'
p202
Vnext
p203
sS'form.aug_quad_rot.data'
p204
g142
sS'form.rms_decay.data'
p205
F0.99
sS'form.slurm_selector.data'
p206
I00
sS'form.lr_sigmoid_step.data'
p207
I50
sS'form.crop_size.data'
p208
NsS'form.select_gpu_count.data'
p209
I1
sS'form.aug_hsv_v.data'
p210
F0.06
sS'form.python_layer_server_file.data'
p211
g46
sS'form.custom_network.data'
p212
V\u000alayer {\u000a  name: "data"\u000a  type: "Data"\u000a  top: "data"\u000a  include {\u000a    phase: TRAIN\u000a  }\u000a  transform_param {\u000a    crop_size: 8\u000a  }\u000a}\u000alayer {\u000a  name: "data"\u000a  type: "Data"\u000a  top: "data"\u000a  include {\u000a    phase: TEST\u000a  }\u000a  transform_param {\u000a    crop_size: 8\u000a  }\u000a}\u000alayer {\u000a  name: "scale"\u000a  type: "Power"\u000a  bottom: "data"\u000a  top: "scale"\u000a  power_param {\u000a    scale: 0.004\u000a  }\u000a}\u000alayer {\u000a  name: "hidden"\u000a  type: "InnerProduct"\u000a  bottom: "scale"\u000a  top: "output"\u000a  inner_product_param {\u000a    num_output: 2\u000a  }\u000a}\u000alayer {\u000a  name: "loss"\u000a  type: "EuclideanLoss"\u000a  bottom: "output"\u000a  bottom: "label"\u000a  top: "loss"\u000a  exclude { stage: "deploy" }\u000a}\u000a
p213
sS'form.pretrained_networks.data'
p214
VNone
p215
sS'form.solver_type.data'
p216
g168
sS'form.aug_noise.data'
p217
I0
sS'form.select_gpus_list.data'
p218
g46
sS'form.slurm_cpu_count.data'
p219
I8
sS'form.shuffle.data'
p220
I00
sS'form.aug_scale.data'
p221
I0
sS'form.batch_accumulation.data'
p222
NsS'form.batch_size.data'
p223
(lp224
I10
asS'form.lr_inv_power.data'
p225
F0.5
sS'form.group_name.data'
p226
g177
sS'form.use_mean.data'
p227
g109
sS'form.lr_inv_gamma.data'
p228
F0.1
sS'form.lr_step_gamma.data'
p229
F0.1
sS'form.snapshot_interval.data'
p230
I1
sS'form.lr_step_size.data'
p231
I33
sS'form.aug_hsv_use.data'
p232
I00
sS'form.method.data'
p233
Vcustom
p234
sS'form.aug_hsv_h.data'
p235
F0.02
sS'form.custom_network_snapshot.data'
p236
g46
sS'form.random_seed.data'
p237
I3405691582
sS'form.lr_multistep_gamma.data'
p238
F0.5
sS'form.model_name.data'
p239
g174
sS'form.lr_exp_gamma.data'
p240
F0.95
sS'form.val_interval.data'
p241
I1
sS'form.aug_rot.data'
p242
I0
sS'form.train_epochs.data'
p243
I3
sS'form.lr_poly_power.data'
p244
I3
ssg115
F1.0
sS'_id'
p245
S'20161209-112212-36fc'
p246
sS'pickver_job_dataset'
p247
I1
sg151
(lp248
((idigits.status
Status
p249
g155
bF1481242932.092475
tp250
a((idigits.status
Status
p251
g158
bF1481242932.111437
tp252
a((idigits.status
Status
p253
g161
bF1481242936.728063
tp254
asb.