ccopy_reg
_reconstructor
p0
(cdigits.dataset.images.generic.job
GenericImageDatasetJob
p1
c__builtin__
object
p2
Ntp3
Rp4
(dp5
S'username'
p6
Vdigits-testsuite
p7
sS'_notes'
p8
NsS'tasks'
p9
(lp10
g0
(cdigits.dataset.tasks.analyze_db
AnalyzeDbTask
p11
g2
Ntp12
Rp13
(dp14
S'time_limit'
p15
I0
sS'pickver_task_analyzedb'
p16
I1
sS'node'
p17
S''
p18
sS'analyze_db_log_file'
p19
S'analyze_db_training-images.log'
p20
sS'job_num'
p21
S'4015704'
p22
sS'force_same_shape'
p23
I1
sS'system_type'
p24
S'slurm'
p25
sS'pickver_task'
p26
I1
sS's_cpu_count'
p27
I8
sS'backend'
p28
S'lmdb'
p29
sS's_mem'
p30
I10
sS'exception'
p31
VNo such file or directory
p32
sS'current_resources'
p33
(dp34
S'analyze_db_task_pool'
p35
(lp36
(I46913983168016
I1
tp37
assS'job_id'
p38
S'20161209-105034-018c'
p39
sS'database'
p40
V/tmp/zim021.1042/tmplTRYLs/train_images
p41
sS'traceback'
p42
NsS'image_channels'
p43
NsS'image_width'
p44
NsS'job_dir'
p45
S'/data/zim021/digits-proj/DIGITS/tmpuZ2vMt/20161209-105034-018c'
p46
sS'image_height'
p47
NsS'parents'
p48
NsS'progress'
p49
I0
sS'image_count'
p50
NsS'status_history'
p51
(lp52
((idigits.status
Status
p53
S'I'
p55
bF1481241034.775887
tp56
a((idigits.status
Status
p57
S'R'
p58
bF1481241034.786854
tp59
asS'purpose'
p60
S'Training Images'
p61
sbag0
(g11
g2
Ntp62
Rp63
(dp64
g15
I0
sg16
I1
sg17
g18
sg19
S'analyze_db_training-labels.log'
p65
sg21
S'4015705'
p66
sg23
I1
sg24
g25
sg26
I1
sg27
I8
sg28
g29
sg30
I10
sg31
VNo such file or directory
p67
sg33
(dp68
g35
(lp69
(I46913983168016
I1
tp70
assg38
S'20161209-105034-018c'
p71
sg40
V/tmp/zim021.1042/tmplTRYLs/train_labels
p72
sg42
Nsg43
Nsg44
Nsg45
g46
sg47
Nsg48
Nsg49
I0
sg50
Nsg51
(lp73
((idigits.status
Status
p74
g55
bF1481241034.776003
tp75
a((idigits.status
Status
p76
g58
bF1481241034.799037
tp77
asg60
S'Training Labels'
p78
sbag0
(g11
g2
Ntp79
Rp80
(dp81
g15
I0
sg16
I1
sg17
g18
sg19
S'analyze_db_validation-images.log'
p82
sg21
S'4015706'
p83
sg23
I1
sg24
g25
sg26
I1
sg27
I8
sg28
g29
sg30
I10
sg31
VNo such file or directory
p84
sg33
(dp85
g35
(lp86
(I46913983168016
I1
tp87
assg38
S'20161209-105034-018c'
p88
sg40
V/tmp/zim021.1042/tmplTRYLs/val_images
p89
sg42
Nsg43
Nsg44
Nsg45
g46
sg47
Nsg48
Nsg49
I0
sg50
Nsg51
(lp90
((idigits.status
Status
p91
g55
bF1481241034.776065
tp92
a((idigits.status
Status
p93
g58
bF1481241034.813484
tp94
asg60
S'Validation Images'
p95
sbag0
(g11
g2
Ntp96
Rp97
(dp98
g15
I0
sg16
I1
sg17
g18
sg19
S'analyze_db_validation-labels.log'
p99
sg21
S'4015707'
p100
sg23
I1
sg24
g25
sg26
I1
sg27
I8
sg28
g29
sg30
I10
sg31
VNo such file or directory
p101
sg33
(dp102
g35
(lp103
(I46913983168016
I1
tp104
assg38
S'20161209-105034-018c'
p105
sg40
V/tmp/zim021.1042/tmplTRYLs/val_labels
p106
sg42
Nsg43
Nsg44
Nsg45
g46
sg47
Nsg48
Nsg49
I0
sg50
Nsg51
(lp107
((idigits.status
Status
p108
g55
bF1481241034.77612
tp109
a((idigits.status
Status
p110
g58
bF1481241034.826164
tp111
asg60
S'Validation Labels'
p112
sbasS'image_dims'
p113
NsS'resize_mode'
p114
NsS'mean_file'
p115
V/tmp/zim021.1042/tmplTRYLs/train_mean.binaryproto
p116
sS'pickver_job'
p117
I2
sS'pickver_job_dataset_image_generic'
p118
I1
sS'pickver_job_dataset_image'
p119
I1
sg31
NsS'group'
p120
Vtest_group
p121
sS'persistent'
p122
I01
sS'_name'
p123
Vtest_dataset
p124
sS'form_data'
p125
(dp126
S'form.prebuilt_val_images.data'
p127
g89
sS'form.method.data'
p128
Vprebuilt
p129
sS'form.slurm_selector.data'
p130
I00
sS'form.encoding.data'
p131
Vpng
p132
sS'form.resize_channels.data'
p133
V3
p134
sS'form.resize_height.data'
p135
I256
sS'form.force_same_shape.data'
p136
I1
sS'form.slurm_cpu_count.data'
p137
I8
sS'form.resize_mode.data'
p138
Vsquash
p139
sS'form.dataset_name.data'
p140
g124
sS'form.group_name.data'
p141
g121
sS'form.resize_width.data'
p142
I256
sS'form.slurm_mem.data'
p143
I10
sS'form.slurm_time_limit.data'
p144
I0
sS'form.prebuilt_val_labels.data'
p145
g106
sS'form.prebuilt_train_images.data'
p146
g41
sS'form.prebuilt_mean_file.data'
p147
g116
sS'form.prebuilt_train_labels.data'
p148
g72
ssg49
I0
sS'_id'
p149
S'20161209-105034-018c'
p150
sS'pickver_job_dataset'
p151
I1
sg51
(lp152
((idigits.status
Status
p153
g55
bF1481241034.775319
tp154
a((idigits.status
Status
p155
g58
bF1481241034.784531
tp156
asb.