ccopy_reg
_reconstructor
p0
(cdigits.dataset.generic.job
GenericDatasetJob
p1
c__builtin__
object
p2
Ntp3
Rp4
(dp5
S'_notes'
p6
NsS'username'
p7
Vdigits-testsuite
p8
sS'tasks'
p9
(lp10
g0
(cdigits.dataset.tasks.create_generic_db
CreateGenericDbTask
p11
g2
Ntp12
Rp13
(dp14
S'node'
p15
S''
p16
sS'time_limit'
p17
NsS'feature_shape'
p18
NsS'pickver_task_create_generic_db'
p19
I1
sS'job_num'
p20
S'4015681'
p21
sS'label_shape'
p22
NsS'job'
p23
g4
sS'system_type'
p24
S'slurm'
p25
sS'create_db_log_file'
p26
S'create_train_db_db.log'
p27
sS'dbs'
p28
(dp29
S'labels'
p30
NsS'features'
p31
NssS's_cpu_count'
p32
NsS'pickver_task'
p33
I1
sS'backend'
p34
Vlmdb
p35
sS's_mem'
p36
NsS'exception'
p37
VValueError: Unable to find supported images in /tmp/zim021.1042/tmprQBN85
p38
sS'current_resources'
p39
(dp40
S'create_db_task_pool'
p41
(lp42
(I46913983164880
I1
tp43
assS'job_id'
p44
S'20161209-105007-efe7'
p45
sS'traceback'
p46
NsS'mean_file'
p47
NsS'job_dir'
p48
S'/data/zim021/digits-proj/DIGITS/tmpuZ2vMt/20161209-105007-efe7'
p49
sS'entry_count'
p50
I0
sS'parents'
p51
NsS'progress'
p52
I0
sS'stage'
p53
S'train_db'
p54
sS'status_history'
p55
(lp56
((idigits.status
Status
p57
S'I'
p59
bF1481241007.387951
tp60
a((idigits.status
Status
p61
S'R'
p62
bF1481241007.408495
tp63
asbag0
(g11
g2
Ntp64
Rp65
(dp66
g15
g16
sg17
Nsg18
Nsg19
I1
sg20
S'4015682'
p67
sg22
Nsg23
g4
sg24
g25
sg26
S'create_val_db_db.log'
p68
sg28
(dp69
g30
Nsg31
Nssg32
Nsg33
I1
sg34
g35
sg36
Nsg37
VValueError: Unable to find supported images in /tmp/zim021.1042/tmprQBN85
p70
sg39
(dp71
g41
(lp72
(I46913983164880
I1
tp73
assg44
S'20161209-105007-efe7'
p74
sg46
Nsg47
Nsg48
g49
sg50
I0
sg51
Nsg52
I0
sg53
S'val_db'
p75
sg55
(lp76
((idigits.status
Status
p77
g59
bF1481241007.388128
tp78
a((idigits.status
Status
p79
g62
bF1481241007.424895
tp80
asbag0
(g11
g2
Ntp81
Rp82
(dp83
g15
g16
sg17
Nsg18
Nsg19
I1
sg20
S'4015683'
p84
sg22
Nsg23
g4
sg24
g25
sg26
S'create_test_db_db.log'
p85
sg28
(dp86
g30
Nsg31
Nssg32
Nsg33
I1
sg34
g35
sg36
Nsg37
Nsg39
(dp87
g41
(lp88
(I46913983164880
I1
tp89
assg44
S'20161209-105007-efe7'
p90
sg46
Nsg47
Nsg48
g49
sg50
I0
sg51
Nsg52
I0
sg53
S'test_db'
p91
sg55
(lp92
((idigits.status
Status
p93
g59
bF1481241007.388182
tp94
a((idigits.status
Status
p95
g62
bF1481241007.442791
tp96
asbasS'pickver_job_dataset_extension'
p97
I1
sS'batch_size'
p98
I32
sS'force_same_shape'
p99
I1
sS'form_data'
p100
(dp101
S'form.dsopts_num_threads.data'
p102
I4
sS'form.has_val_folder.data'
p103
I00
sS'form.channel_conversion.data'
p104
VL
p105
sS'form.dsopts_force_same_shape.data'
p106
I1
sS'form.dsopts_batch_size.data'
p107
I32
sS'form.folder_pct_val.data'
p108
I10
sS'form.slurm_selector.data'
p109
I00
sS'form.dsopts_label_encoding.data'
p110
Vnone
p111
sS'form.slurm_cpu_count.data'
p112
I8
sS'form.validation_feature_folder.data'
p113
V
p114
sS'form.feature_folder.data'
p115
V/tmp/zim021.1042/tmprQBN85
p116
sS'form.dsopts_backend.data'
p117
g35
sS'form.group_name.data'
p118
Vtest_group
p119
sS'form.slurm_time_limit.data'
p120
I0
sS'form.slurm_mem.data'
p121
I10
sS'form.dsopts_feature_encoding.data'
p122
Vpng
p123
sS'form.validation_label_folder.data'
p124
g114
sS'form.dataset_name.data'
p125
Vtest_dataset
p126
sS'form.label_folder.data'
p127
V/tmp/zim021.1042/tmprQBN85
p128
ssS'pickver_job'
p129
I2
sg34
g35
sS'num_threads'
p130
I4
sg37
NsS'group'
p131
g119
sS'feature_encoding'
p132
g123
sS'persistent'
p133
I01
sS'_name'
p134
g126
sS'extension_userdata'
p135
(dp136
S'validation_label_folder'
p137
g114
sS'folder_pct_val'
p138
I10
sS'has_val_folder'
p139
I00
sS'label_folder'
p140
g128
sS'feature_folder'
p141
g116
sS'validation_feature_folder'
p142
g114
sS'seed'
p143
I71
sS'channel_conversion'
p144
g105
ssS'extension_id'
p145
Vimage-processing
p146
sS'label_encoding'
p147
g111
sg52
I0
sS'_id'
p148
S'20161209-105007-efe7'
p149
sS'pickver_job_dataset'
p150
I1
sg55
(lp151
((idigits.status
Status
p152
g59
bF1481241007.387253
tp153
a((idigits.status
Status
p154
g62
bF1481241007.397906
tp155
asb.