ccopy_reg
_reconstructor
p0
(cdigits.dataset.images.generic.job
GenericImageDatasetJob
p1
c__builtin__
object
p2
Ntp3
Rp4
(dp5
S'username'
p6
Vdigits-testsuite
p7
sS'_notes'
p8
NsS'tasks'
p9
(lp10
g0
(cdigits.dataset.tasks.analyze_db
AnalyzeDbTask
p11
g2
Ntp12
Rp13
(dp14
S'time_limit'
p15
I0
sS'pickver_task_analyzedb'
p16
I1
sS'node'
p17
S''
p18
sS'analyze_db_log_file'
p19
S'analyze_db_training-images.log'
p20
sS'job_num'
p21
S'4016436'
p22
sS'force_same_shape'
p23
I1
sS'system_type'
p24
S'slurm'
p25
sS'pickver_task'
p26
I1
sS's_cpu_count'
p27
I8
sS'backend'
p28
S'lmdb'
p29
sS's_mem'
p30
I10
sS'exception'
p31
NsS'current_resources'
p32
NsS'job_id'
p33
S'20161209-112503-841a'
p34
sS'database'
p35
V/data/zim021/digits-proj/DIGITS/tmp/tmpc2ZVI7/train_images
p36
sS'traceback'
p37
NsS'image_channels'
p38
I1
sS'image_width'
p39
I10
sS'job_dir'
p40
S'/data/zim021/digits-proj/DIGITS/tmp/tmpyzXVAu/20161209-112503-841a'
p41
sS'image_height'
p42
I10
sS'parents'
p43
NsS'progress'
p44
F1.0
sS'image_count'
p45
I100
sS'status_history'
p46
(lp47
((idigits.status
Status
p48
S'I'
p50
bF1481243103.525072
tp51
a((idigits.status
Status
p52
S'R'
p53
bF1481243103.536076
tp54
a((idigits.status
Status
p55
S'D'
p56
bF1481243106.520834
tp57
asS'purpose'
p58
S'Training Images'
p59
sbag0
(g11
g2
Ntp60
Rp61
(dp62
g15
I0
sg16
I1
sg17
g18
sg19
S'analyze_db_training-labels.log'
p63
sg21
S'4016437'
p64
sg23
I1
sg24
g25
sg26
I1
sg27
I8
sg28
g29
sg30
I10
sg31
Nsg32
Nsg33
S'20161209-112503-841a'
p65
sg35
V/data/zim021/digits-proj/DIGITS/tmp/tmpc2ZVI7/train_labels
p66
sg37
Nsg38
I1
sg39
I2
sg40
g41
sg42
I1
sg43
Nsg44
F1.0
sg45
I100
sg46
(lp67
((idigits.status
Status
p68
g50
bF1481243103.525172
tp69
a((idigits.status
Status
p70
g53
bF1481243103.54979
tp71
a((idigits.status
Status
p72
g56
bF1481243106.620282
tp73
asg58
S'Training Labels'
p74
sbag0
(g11
g2
Ntp75
Rp76
(dp77
g15
I0
sg16
I1
sg17
g18
sg19
S'analyze_db_validation-images.log'
p78
sg21
S'4016438'
p79
sg23
I1
sg24
g25
sg26
I1
sg27
I8
sg28
g29
sg30
I10
sg31
Nsg32
Nsg33
S'20161209-112503-841a'
p80
sg35
V/data/zim021/digits-proj/DIGITS/tmp/tmpc2ZVI7/val_images
p81
sg37
Nsg38
I1
sg39
I10
sg40
g41
sg42
I10
sg43
Nsg44
F1.0
sg45
I20
sg46
(lp82
((idigits.status
Status
p83
g50
bF1481243103.525234
tp84
a((idigits.status
Status
p85
g53
bF1481243103.565748
tp86
a((idigits.status
Status
p87
g56
bF1481243106.879429
tp88
asg58
S'Validation Images'
p89
sbag0
(g11
g2
Ntp90
Rp91
(dp92
g15
I0
sg16
I1
sg17
g18
sg19
S'analyze_db_validation-labels.log'
p93
sg21
S'4016439'
p94
sg23
I1
sg24
g25
sg26
I1
sg27
I8
sg28
g29
sg30
I10
sg31
Nsg32
Nsg33
S'20161209-112503-841a'
p95
sg35
V/data/zim021/digits-proj/DIGITS/tmp/tmpc2ZVI7/val_labels
p96
sg37
Nsg38
I1
sg39
I2
sg40
g41
sg42
I1
sg43
Nsg44
F1.0
sg45
I20
sg46
(lp97
((idigits.status
Status
p98
g50
bF1481243103.525293
tp99
a((idigits.status
Status
p100
g53
bF1481243103.580544
tp101
a((idigits.status
Status
p102
g56
bF1481243106.933841
tp103
asg58
S'Validation Labels'
p104
sbasS'image_dims'
p105
NsS'resize_mode'
p106
NsS'mean_file'
p107
V/data/zim021/digits-proj/DIGITS/tmp/tmpc2ZVI7/train_mean.binaryproto
p108
sS'pickver_job'
p109
I2
sS'pickver_job_dataset_image_generic'
p110
I1
sS'pickver_job_dataset_image'
p111
I1
sg31
NsS'group'
p112
Vtest_group
p113
sS'persistent'
p114
I01
sS'_name'
p115
Vtest_dataset
p116
sS'form_data'
p117
(dp118
S'form.prebuilt_val_images.data'
p119
g81
sS'form.method.data'
p120
Vprebuilt
p121
sS'form.slurm_selector.data'
p122
I00
sS'form.encoding.data'
p123
Vpng
p124
sS'form.resize_channels.data'
p125
V3
p126
sS'form.resize_height.data'
p127
I256
sS'form.force_same_shape.data'
p128
I1
sS'form.slurm_cpu_count.data'
p129
I8
sS'form.resize_mode.data'
p130
Vsquash
p131
sS'form.dataset_name.data'
p132
g116
sS'form.group_name.data'
p133
g113
sS'form.resize_width.data'
p134
I256
sS'form.slurm_mem.data'
p135
I10
sS'form.slurm_time_limit.data'
p136
I0
sS'form.prebuilt_val_labels.data'
p137
g96
sS'form.prebuilt_train_images.data'
p138
g36
sS'form.prebuilt_mean_file.data'
p139
g108
sS'form.prebuilt_train_labels.data'
p140
g66
ssg44
F1.0
sS'_id'
p141
S'20161209-112503-841a'
p142
sS'pickver_job_dataset'
p143
I1
sg46
(lp144
((idigits.status
Status
p145
g50
bF1481243103.52469
tp146
a((idigits.status
Status
p147
g53
bF1481243103.533858
tp148
a((idigits.status
Status
p149
g56
bF1481243106.965882
tp150
asb.