(dp0
Vwolf
p1
S'pbkdf2:sha1:1000$LThu8Jzn$b4c83c873298157837beb1b4a1f346d22188d537'
p2
sVdigits-testsuite
p3
S'pbkdf2:sha1:1000$NsuKYCEn$004ef6b436aa05780cb48d84f93ddddf68746b43'
p4
sVwolfz
p5
S'pbkdf2:sha1:1000$OjFZzvRm$e40913703ea287d4f53e74ea7cc299c1df9e3956'
p6
s.