ccopy_reg
_reconstructor
p0
(cdigits.dataset.images.classification.job
ImageClassificationDatasetJob
p1
c__builtin__
object
p2
Ntp3
Rp4
(dp5
S'username'
p6
Vdigits-testsuite
p7
sS'_notes'
p8
NsS'tasks'
p9
(lp10
g0
(cdigits.dataset.tasks.parse_folder
ParseFolderTask
p11
g2
Ntp12
Rp13
(dp14
S'node'
p15
S''
p16
sS'time_limit'
p17
NsS'percent_test'
p18
F0.0
sS'train_count'
p19
NsS'percent_val'
p20
F25.0
sS'val_file'
p21
S'val.txt'
p22
sS'job_num'
p23
S'4015447'
p24
sS'exception'
p25
NsS'pickver_task_parsefolder'
p26
I1
sS'test_count'
p27
NsS'system_type'
p28
S'slurm'
p29
sS'max_per_category'
p30
NsS'pickver_task'
p31
I1
sS's_mem'
p32
NsS'labels_file'
p33
S'labels.txt'
p34
sS'current_resources'
p35
(dp36
S'parse_folder_task_pool'
p37
(lp38
(I46913983164688
I1
tp39
assS'job_id'
p40
S'20161209-104014-e411'
p41
sS'train_file'
p42
S'train.txt'
p43
sS'traceback'
p44
NsS'label_count'
p45
NsS'job_dir'
p46
S'/data/zim021/digits-proj/DIGITS/tmpuZ2vMt/20161209-104014-e411'
p47
sS's_cpu_count'
p48
NsS'parents'
p49
NsS'progress'
p50
I0
sS'folder'
p51
V/tmp/zim021.1042/tmpmVMT14
p52
sS'min_per_category'
p53
I2
sS'val_count'
p54
NsS'status_history'
p55
(lp56
((idigits.status
Status
p57
S'I'
p59
bF1481240414.797058
tp60
a((idigits.status
Status
p61
S'R'
p62
bF1481240414.81114
tp63
asbag0
(cdigits.dataset.tasks.create_db
CreateDbTask
p64
g2
Ntp65
Rp66
(dp67
g17
I0
sS'shuffle'
p68
I01
sS'pickver_task_createdb'
p69
I3
sS'encoding'
p70
S'none'
p71
sg23
g16
sS'resize_mode'
p72
Vsquash
p73
sg28
g29
sS'entries_count'
p74
NsS'backend'
p75
Vhdf5
p76
sg32
I10
sS'compression'
p77
Vnone
p78
sg46
g47
sg49
(lp79
g13
asg50
I0
sg15
g16
sg33
g34
sS'input_file'
p80
g43
sS'image_dims'
p81
(I10
I10
I3
tp82
sS'db_name'
p83
S'train_db'
p84
sg31
I1
sS'textfile'
p85
S'train_db/list.txt'
p86
sS'image_folder'
p87
Nsg40
S'20161209-104014-e411'
p88
sg25
Nsg44
NsS'mean_file'
p89
S'mean.binaryproto'
p90
sg48
I8
sS'image_channel_order'
p91
S'BGR'
p92
sS'create_db_log_file'
p93
S'create_train_db.log'
p94
sS'distribution'
p95
Nsg55
(lp96
((idigits.status
Status
p97
g59
bF1481240414.797178
tp98
asbag0
(g64
g2
Ntp99
Rp100
(dp101
g17
I0
sg68
I01
sg69
I3
sg70
g71
sg23
g16
sg72
g73
sg28
g29
sg74
Nsg75
g76
sg32
I10
sg77
g78
sg46
g47
sg49
(lp102
g13
asg50
I0
sg15
g16
sg33
g34
sg80
g22
sg81
g82
sg83
S'val_db'
p103
sg31
I1
sg85
S'val_db/list.txt'
p104
sg87
Nsg40
S'20161209-104014-e411'
p105
sg25
Nsg44
Nsg89
Nsg48
I8
sg91
g92
sg93
S'create_val_db.log'
p106
sg95
Nsg55
(lp107
((idigits.status
Status
p108
g59
bF1481240414.797253
tp109
asbasg33
g34
sg81
g82
sg72
g73
sS'pickver_job'
p110
I2
sS'pickver_job_dataset_image'
p111
I1
sg25
NsS'group'
p112
Vtest_group
p113
sS'pickver_job_dataset'
p114
I1
sS'persistent'
p115
I01
sS'_name'
p116
Vtest_dataset
p117
sS'form_data'
p118
(dp119
S'form.compression.data'
p120
g78
sS'form.textfile_labels_file.data'
p121
V
p122
sS'form.textfile_local_train_images.data'
p123
g122
sS'form.resize_height.data'
p124
I10
sS'form.folder_train.data'
p125
g52
sS'form.folder_val_max_per_class.data'
p126
NsS'form.folder_train_min_per_class.data'
p127
I2
sS'form.textfile_val_folder.data'
p128
g122
sS'form.slurm_mem.data'
p129
I10
sS'form.slurm_time_limit.data'
p130
I0
sS'form.backend.data'
p131
g76
sS'form.slurm_selector.data'
p132
I00
sS'form.has_test_folder.data'
p133
I00
sS'form.folder_test_max_per_class.data'
p134
NsS'form.textfile_train_images.data'
p135
g122
sS'form.folder_train_max_per_class.data'
p136
NsS'form.folder_val.data'
p137
g122
sS'form.textfile_use_test.data'
p138
I00
sS'form.folder_val_min_per_class.data'
p139
I2
sS'form.has_val_folder.data'
p140
I00
sS'form.textfile_local_labels_file.data'
p141
g122
sS'form.textfile_use_local_files.data'
p142
I00
sS'form.textfile_local_val_images.data'
p143
g122
sS'form.textfile_test_images.data'
p144
g122
sS'form.dataset_name.data'
p145
g117
sS'form.resize_width.data'
p146
I10
sS'form.textfile_train_folder.data'
p147
g122
sS'form.slurm_cpu_count.data'
p148
I8
sS'form.group_name.data'
p149
g113
sS'form.folder_test.data'
p150
g122
sS'form.folder_test_min_per_class.data'
p151
I2
sS'form.textfile_shuffle.data'
p152
I1
sS'form.folder_pct_val.data'
p153
I25
sS'form.resize_mode.data'
p154
g73
sS'form.resize_channels.data'
p155
V3
p156
sS'form.method.data'
p157
Vfolder
p158
sS'form.textfile_test_folder.data'
p159
g122
sS'form.folder_pct_test.data'
p160
I0
sS'form.encoding.data'
p161
g71
sS'form.textfile_use_val.data'
p162
I00
sS'form.textfile_val_images.data'
p163
g122
sS'form.textfile_local_test_images.data'
p164
g122
ssg50
I0
sS'_id'
p165
S'20161209-104014-e411'
p166
sS'pickver_job_dataset_image_classification'
p167
I2
sg55
(lp168
((idigits.status
Status
p169
g59
bF1481240414.796457
tp170
a((idigits.status
Status
p171
g62
bF1481240414.8094
tp172
asb.