ccopy_reg
_reconstructor
p0
(cdigits.dataset.generic.job
GenericDatasetJob
p1
c__builtin__
object
p2
Ntp3
Rp4
(dp5
S'_notes'
p6
NsS'username'
p7
Vdigits-testsuite
p8
sS'tasks'
p9
(lp10
g0
(cdigits.dataset.tasks.create_generic_db
CreateGenericDbTask
p11
g2
Ntp12
Rp13
(dp14
S'node'
p15
S''
p16
sS'time_limit'
p17
NsS'feature_shape'
p18
NsS'pickver_task_create_generic_db'
p19
I1
sS'job_num'
p20
S'4015438'
p21
sS'label_shape'
p22
NsS'job'
p23
g4
sS'system_type'
p24
S'slurm'
p25
sS'create_db_log_file'
p26
S'create_train_db_db.log'
p27
sS'dbs'
p28
(dp29
S'labels'
p30
NsS'features'
p31
NssS's_cpu_count'
p32
NsS'pickver_task'
p33
I1
sS'backend'
p34
Vlmdb
p35
sS's_mem'
p36
NsS'exception'
p37
NsS'current_resources'
p38
(dp39
S'create_db_task_pool'
p40
(lp41
(I46913983164880
I1
tp42
assS'job_id'
p43
S'20161209-103851-aee0'
p44
sS'traceback'
p45
NsS'mean_file'
p46
NsS'job_dir'
p47
S'/data/zim021/digits-proj/DIGITS/tmpuZ2vMt/20161209-103851-aee0'
p48
sS'entry_count'
p49
I0
sS'parents'
p50
NsS'progress'
p51
I0
sS'stage'
p52
S'train_db'
p53
sS'status_history'
p54
(lp55
((idigits.status
Status
p56
S'I'
p58
bF1481240331.331077
tp59
a((idigits.status
Status
p60
S'R'
p61
bF1481240331.366843
tp62
asbag0
(g11
g2
Ntp63
Rp64
(dp65
g15
g16
sg17
Nsg18
Nsg19
I1
sg20
S'4015439'
p66
sg22
Nsg23
g4
sg24
g25
sg26
S'create_val_db_db.log'
p67
sg28
(dp68
g30
Nsg31
Nssg32
Nsg33
I1
sg34
g35
sg36
Nsg37
Nsg38
(dp69
g40
(lp70
(I46913983164880
I1
tp71
assg43
S'20161209-103851-aee0'
p72
sg45
Nsg46
Nsg47
g48
sg49
I0
sg50
Nsg51
I0
sg52
S'val_db'
p73
sg54
(lp74
((idigits.status
Status
p75
g58
bF1481240331.33117
tp76
a((idigits.status
Status
p77
g61
bF1481240331.383324
tp78
asbag0
(g11
g2
Ntp79
Rp80
(dp81
g15
g16
sg17
Nsg18
Nsg19
I1
sg20
S'4015440'
p82
sg22
Nsg23
g4
sg24
g25
sg26
S'create_test_db_db.log'
p83
sg28
(dp84
g30
Nsg31
Nssg32
Nsg33
I1
sg34
g35
sg36
Nsg37
Nsg38
(dp85
g40
(lp86
(I46913983164880
I1
tp87
assg43
S'20161209-103851-aee0'
p88
sg45
Nsg46
Nsg47
g48
sg49
I0
sg50
Nsg51
I0
sg52
S'test_db'
p89
sg54
(lp90
((idigits.status
Status
p91
g58
bF1481240331.331223
tp92
a((idigits.status
Status
p93
g61
bF1481240331.401097
tp94
asbasS'pickver_job_dataset_extension'
p95
I1
sS'batch_size'
p96
I32
sS'force_same_shape'
p97
I1
sS'form_data'
p98
(dp99
S'form.dsopts_num_threads.data'
p100
I4
sS'form.has_val_folder.data'
p101
I00
sS'form.channel_conversion.data'
p102
VL
p103
sS'form.dsopts_force_same_shape.data'
p104
I1
sS'form.dsopts_batch_size.data'
p105
I32
sS'form.folder_pct_val.data'
p106
I10
sS'form.slurm_selector.data'
p107
I00
sS'form.dsopts_label_encoding.data'
p108
Vnone
p109
sS'form.slurm_cpu_count.data'
p110
I8
sS'form.validation_feature_folder.data'
p111
V
p112
sS'form.feature_folder.data'
p113
V/tmp/zim021.1042/tmpw1mzVN
p114
sS'form.dsopts_backend.data'
p115
g35
sS'form.group_name.data'
p116
Vtest_group
p117
sS'form.slurm_time_limit.data'
p118
I0
sS'form.slurm_mem.data'
p119
I10
sS'form.dsopts_feature_encoding.data'
p120
Vpng
p121
sS'form.validation_label_folder.data'
p122
g112
sS'form.dataset_name.data'
p123
Vtest_dataset
p124
sS'form.label_folder.data'
p125
V/tmp/zim021.1042/tmpw1mzVN
p126
ssS'pickver_job'
p127
I2
sg34
g35
sS'num_threads'
p128
I4
sg37
NsS'group'
p129
g117
sS'feature_encoding'
p130
g121
sS'persistent'
p131
I01
sS'_name'
p132
g124
sS'extension_userdata'
p133
(dp134
S'validation_label_folder'
p135
g112
sS'folder_pct_val'
p136
I10
sS'has_val_folder'
p137
I00
sS'label_folder'
p138
g126
sS'feature_folder'
p139
g114
sS'validation_feature_folder'
p140
g112
sS'seed'
p141
I461
sS'channel_conversion'
p142
g103
ssS'extension_id'
p143
Vimage-processing
p144
sS'label_encoding'
p145
g109
sg51
I0
sS'_id'
p146
S'20161209-103851-aee0'
p147
sS'pickver_job_dataset'
p148
I1
sg54
(lp149
((idigits.status
Status
p150
g58
bF1481240331.3305
tp151
a((idigits.status
Status
p152
g61
bF1481240331.339006
tp153
asb.