ccopy_reg
_reconstructor
p0
(cdigits.dataset.images.generic.job
GenericImageDatasetJob
p1
c__builtin__
object
p2
Ntp3
Rp4
(dp5
S'username'
p6
Vdigits-testsuite
p7
sS'_notes'
p8
NsS'tasks'
p9
(lp10
g0
(cdigits.dataset.tasks.analyze_db
AnalyzeDbTask
p11
g2
Ntp12
Rp13
(dp14
S'time_limit'
p15
I0
sS'pickver_task_analyzedb'
p16
I1
sS'node'
p17
S''
p18
sS'analyze_db_log_file'
p19
S'analyze_db_training-images.log'
p20
sS'job_num'
p21
g18
sS'force_same_shape'
p22
I1
sS'system_type'
p23
S'slurm'
p24
sS'pickver_task'
p25
I1
sS's_cpu_count'
p26
I8
sS'backend'
p27
S'lmdb'
p28
sS's_mem'
p29
I10
sS'exception'
p30
NsS'current_resources'
p31
(dp32
S'analyze_db_task_pool'
p33
(lp34
(I46913983168016
I1
tp35
assS'job_id'
p36
S'20161209-104812-71c4'
p37
sS'database'
p38
V/tmp/zim021.1042/tmplTRYLs/train_images
p39
sS'traceback'
p40
NsS'image_channels'
p41
NsS'image_width'
p42
NsS'job_dir'
p43
S'/data/zim021/digits-proj/DIGITS/tmpuZ2vMt/20161209-104812-71c4'
p44
sS'image_height'
p45
NsS'parents'
p46
NsS'progress'
p47
I0
sS'image_count'
p48
NsS'status_history'
p49
(lp50
((idigits.status
Status
p51
S'I'
p53
bF1481240892.449874
tp54
a((idigits.status
Status
p55
S'R'
p56
bF1481240892.485394
tp57
asS'purpose'
p58
S'Training Images'
p59
sbag0
(g11
g2
Ntp60
Rp61
(dp62
g15
I0
sg16
I1
sg17
g18
sg19
S'analyze_db_training-labels.log'
p63
sg21
g18
sg22
I1
sg23
g24
sg25
I1
sg26
I8
sg27
g28
sg29
I10
sg30
Nsg31
(dp64
g33
(lp65
(I46913983168016
I1
tp66
assg36
S'20161209-104812-71c4'
p67
sg38
V/tmp/zim021.1042/tmplTRYLs/train_labels
p68
sg40
Nsg41
Nsg42
Nsg43
g44
sg45
Nsg46
Nsg47
I0
sg48
Nsg49
(lp69
((idigits.status
Status
p70
g53
bF1481240892.449967
tp71
a((idigits.status
Status
p72
g56
bF1481240892.498823
tp73
asg58
S'Training Labels'
p74
sbag0
(g11
g2
Ntp75
Rp76
(dp77
g15
I0
sg16
I1
sg17
g18
sg19
S'analyze_db_validation-images.log'
p78
sg21
g18
sg22
I1
sg23
g24
sg25
I1
sg26
I8
sg27
g28
sg29
I10
sg30
Nsg31
(dp79
g33
(lp80
(I46913983168016
I1
tp81
assg36
S'20161209-104812-71c4'
p82
sg38
V/tmp/zim021.1042/tmplTRYLs/val_images
p83
sg40
Nsg41
Nsg42
Nsg43
g44
sg45
Nsg46
Nsg47
I0
sg48
Nsg49
(lp84
((idigits.status
Status
p85
g53
bF1481240892.450028
tp86
a((idigits.status
Status
p87
g56
bF1481240892.513788
tp88
asg58
S'Validation Images'
p89
sbag0
(g11
g2
Ntp90
Rp91
(dp92
g15
I0
sg16
I1
sg17
g18
sg19
S'analyze_db_validation-labels.log'
p93
sg21
g18
sg22
I1
sg23
g24
sg25
I1
sg26
I8
sg27
g28
sg29
I10
sg30
Nsg31
(dp94
g33
(lp95
(I46913983168016
I1
tp96
assg36
S'20161209-104812-71c4'
p97
sg38
V/tmp/zim021.1042/tmplTRYLs/val_labels
p98
sg40
Nsg41
Nsg42
Nsg43
g44
sg45
Nsg46
Nsg47
I0
sg48
Nsg49
(lp99
((idigits.status
Status
p100
g53
bF1481240892.450083
tp101
a((idigits.status
Status
p102
g56
bF1481240892.527379
tp103
asg58
S'Validation Labels'
p104
sbasS'image_dims'
p105
NsS'resize_mode'
p106
NsS'mean_file'
p107
V/tmp/zim021.1042/tmplTRYLs/train_mean.binaryproto
p108
sS'pickver_job'
p109
I2
sS'pickver_job_dataset_image_generic'
p110
I1
sS'pickver_job_dataset_image'
p111
I1
sg30
NsS'group'
p112
Vtest_group
p113
sS'persistent'
p114
I01
sS'_name'
p115
Vtest_dataset
p116
sS'form_data'
p117
(dp118
S'form.prebuilt_val_images.data'
p119
g83
sS'form.method.data'
p120
Vprebuilt
p121
sS'form.slurm_selector.data'
p122
I00
sS'form.encoding.data'
p123
Vpng
p124
sS'form.resize_channels.data'
p125
V3
p126
sS'form.resize_height.data'
p127
I256
sS'form.force_same_shape.data'
p128
I1
sS'form.slurm_cpu_count.data'
p129
I8
sS'form.resize_mode.data'
p130
Vsquash
p131
sS'form.dataset_name.data'
p132
g116
sS'form.group_name.data'
p133
g113
sS'form.resize_width.data'
p134
I256
sS'form.slurm_mem.data'
p135
I10
sS'form.slurm_time_limit.data'
p136
I0
sS'form.prebuilt_val_labels.data'
p137
g98
sS'form.prebuilt_train_images.data'
p138
g39
sS'form.prebuilt_mean_file.data'
p139
g108
sS'form.prebuilt_train_labels.data'
p140
g68
ssg47
I0
sS'_id'
p141
S'20161209-104812-71c4'
p142
sS'pickver_job_dataset'
p143
I1
sg49
(lp144
((idigits.status
Status
p145
g53
bF1481240892.449399
tp146
a((idigits.status
Status
p147
g56
bF1481240892.458356
tp148
asb.