ccopy_reg
_reconstructor
p0
(cdigits.dataset.generic.job
GenericDatasetJob
p1
c__builtin__
object
p2
Ntp3
Rp4
(dp5
S'_notes'
p6
NsS'username'
p7
Vdigits-testsuite
p8
sS'tasks'
p9
(lp10
g0
(cdigits.dataset.tasks.create_generic_db
CreateGenericDbTask
p11
g2
Ntp12
Rp13
(dp14
S'node'
p15
S''
p16
sS'time_limit'
p17
NsS'feature_shape'
p18
(I1
I26
I31
tp19
sS'pickver_task_create_generic_db'
p20
I1
sS'job_num'
p21
S'4016420'
p22
sS'label_shape'
p23
(I1
I26
I31
tp24
sS'job'
p25
g4
sS'system_type'
p26
S'slurm'
p27
sS'create_db_log_file'
p28
S'create_train_db_db.log'
p29
sS'dbs'
p30
(dp31
S'labels'
p32
Vtrain_db/labels
p33
sS'features'
p34
Vtrain_db/features
p35
ssS's_cpu_count'
p36
NsS'pickver_task'
p37
I1
sS'backend'
p38
Vlmdb
p39
sS's_mem'
p40
NsS'exception'
p41
NsS'current_resources'
p42
NsS'job_id'
p43
S'20161209-112241-5a96'
p44
sS'traceback'
p45
NsS'mean_file'
p46
NsS'job_dir'
p47
S'/data/zim021/digits-proj/DIGITS/tmp/tmpyzXVAu/20161209-112241-5a96'
p48
sS'entry_count'
p49
I90
sS'parents'
p50
NsS'progress'
p51
F1.0
sS'stage'
p52
S'train_db'
p53
sS'status_history'
p54
(lp55
((idigits.status
Status
p56
S'I'
p58
bF1481242961.654568
tp59
a((idigits.status
Status
p60
S'R'
p61
bF1481242961.669118
tp62
a((idigits.status
Status
p63
S'D'
p64
bF1481242966.83936
tp65
asbag0
(g11
g2
Ntp66
Rp67
(dp68
g15
g16
sg17
Nsg18
(I1
I16
I28
tp69
sg20
I1
sg21
S'4016422'
p70
sg23
(I1
I16
I28
tp71
sg25
g4
sg26
g27
sg28
S'create_val_db_db.log'
p72
sg30
(dp73
g32
Vval_db/labels
p74
sg34
Vval_db/features
p75
ssg36
Nsg37
I1
sg38
g39
sg40
Nsg41
Nsg42
Nsg43
S'20161209-112241-5a96'
p76
sg45
Nsg46
Nsg47
g48
sg49
I10
sg50
Nsg51
F1.0
sg52
S'val_db'
p77
sg54
(lp78
((idigits.status
Status
p79
g58
bF1481242961.654651
tp80
a((idigits.status
Status
p81
g61
bF1481242961.687876
tp82
a((idigits.status
Status
p83
g64
bF1481242966.844052
tp84
asbag0
(g11
g2
Ntp85
Rp86
(dp87
g15
g16
sg17
Nsg18
Nsg20
I1
sg21
S'4016421'
p88
sg23
Nsg25
g4
sg26
g27
sg28
S'create_test_db_db.log'
p89
sg30
(dp90
g32
Nsg34
Nssg36
Nsg37
I1
sg38
g39
sg40
Nsg41
Nsg42
Nsg43
S'20161209-112241-5a96'
p91
sg45
Nsg46
Nsg47
g48
sg49
I0
sg50
Nsg51
F1.0
sg52
S'test_db'
p92
sg54
(lp93
((idigits.status
Status
p94
g58
bF1481242961.654707
tp95
a((idigits.status
Status
p96
g61
bF1481242961.709626
tp97
a((idigits.status
Status
p98
g64
bF1481242966.847195
tp99
asbasS'pickver_job_dataset_extension'
p100
I1
sS'batch_size'
p101
I32
sS'force_same_shape'
p102
I0
sS'form_data'
p103
(dp104
S'form.dsopts_num_threads.data'
p105
I4
sS'form.has_val_folder.data'
p106
I00
sS'form.channel_conversion.data'
p107
VL
p108
sS'form.dsopts_force_same_shape.data'
p109
I0
sS'form.dsopts_batch_size.data'
p110
I32
sS'form.folder_pct_val.data'
p111
I10
sS'form.slurm_selector.data'
p112
I00
sS'form.dsopts_label_encoding.data'
p113
Vnone
p114
sS'form.slurm_cpu_count.data'
p115
I8
sS'form.validation_feature_folder.data'
p116
V
p117
sS'form.feature_folder.data'
p118
V/data/zim021/digits-proj/DIGITS/tmp/tmpfeyu5f
p119
sS'form.dsopts_backend.data'
p120
g39
sS'form.group_name.data'
p121
Vtest_group
p122
sS'form.slurm_time_limit.data'
p123
I0
sS'form.slurm_mem.data'
p124
I10
sS'form.dsopts_feature_encoding.data'
p125
Vpng
p126
sS'form.validation_label_folder.data'
p127
g117
sS'form.dataset_name.data'
p128
Vtest_dataset
p129
sS'form.label_folder.data'
p130
V/data/zim021/digits-proj/DIGITS/tmp/tmpfeyu5f
p131
ssS'pickver_job'
p132
I2
sg38
g39
sS'num_threads'
p133
I4
sg41
NsS'group'
p134
g122
sS'feature_encoding'
p135
g126
sS'persistent'
p136
I01
sS'_name'
p137
g129
sS'extension_userdata'
p138
(dp139
S'validation_label_folder'
p140
g117
sS'folder_pct_val'
p141
I10
sS'has_val_folder'
p142
I00
sS'label_folder'
p143
g131
sS'feature_folder'
p144
g119
sS'validation_feature_folder'
p145
g117
sS'seed'
p146
I230
sS'channel_conversion'
p147
g108
ssS'extension_id'
p148
Vimage-processing
p149
sS'label_encoding'
p150
g114
sg51
F1.0
sS'_id'
p151
S'20161209-112241-5a96'
p152
sS'pickver_job_dataset'
p153
I1
sg54
(lp154
((idigits.status
Status
p155
g58
bF1481242961.65406
tp156
a((idigits.status
Status
p157
g61
bF1481242961.66363
tp158
a((idigits.status
Status
p159
g64
bF1481242966.878114
tp160
asb.