ccopy_reg
_reconstructor
p0
(cdigits.dataset.images.classification.job
ImageClassificationDatasetJob
p1
c__builtin__
object
p2
Ntp3
Rp4
(dp5
S'username'
p6
Vdigits-testsuite
p7
sS'_notes'
p8
NsS'tasks'
p9
(lp10
g0
(cdigits.dataset.tasks.parse_folder
ParseFolderTask
p11
g2
Ntp12
Rp13
(dp14
S'node'
p15
S''
p16
sS'time_limit'
p17
NsS'percent_test'
p18
F0.0
sS'train_count'
p19
I24
sS'percent_val'
p20
F25.0
sS'val_file'
p21
S'val.txt'
p22
sS'job_num'
p23
S'4016093'
p24
sS'exception'
p25
NsS'pickver_task_parsefolder'
p26
I1
sS'test_count'
p27
I0
sS'system_type'
p28
S'slurm'
p29
sS'max_per_category'
p30
NsS'pickver_task'
p31
I1
sS's_mem'
p32
NsS'labels_file'
p33
S'labels.txt'
p34
sS'current_resources'
p35
NsS'job_id'
p36
S'20161209-111345-320c'
p37
sS'train_file'
p38
S'train.txt'
p39
sS'traceback'
p40
NsS'label_count'
p41
I3
sS'job_dir'
p42
S'/data/zim021/digits-proj/DIGITS/tmp/tmpyzXVAu/20161209-111345-320c'
p43
sS's_cpu_count'
p44
NsS'parents'
p45
NsS'progress'
p46
F1.0
sS'folder'
p47
V/data/zim021/digits-proj/DIGITS/tmp/tmpxiLhTJ
p48
sS'min_per_category'
p49
I2
sS'val_count'
p50
I6
sS'status_history'
p51
(lp52
((idigits.status
Status
p53
S'I'
p55
bF1481242425.515037
tp56
a((idigits.status
Status
p57
S'R'
p58
bF1481242425.528727
tp59
a((idigits.status
Status
p60
S'D'
p61
bF1481242428.209091
tp62
asbag0
(cdigits.dataset.tasks.create_db
CreateDbTask
p63
g2
Ntp64
Rp65
(dp66
g17
I0
sS'shuffle'
p67
I01
sS'pickver_task_createdb'
p68
I3
sS'encoding'
p69
S'none'
p70
sg23
S'4016094'
p71
sS'resize_mode'
p72
Vsquash
p73
sg28
g29
sS'entries_count'
p74
I24
sS'backend'
p75
Vhdf5
p76
sg32
I10
sS'_labels'
p77
(lp78
S'blue-to-left'
p79
aS'green-to-top'
p80
aS'red-to-right'
p81
asS'compression'
p82
Vnone
p83
sg42
g43
sg44
I8
sg45
(lp84
g13
asg46
F1.0
sg15
g16
sg33
g34
sS'input_file'
p85
g39
sS'image_dims'
p86
(I10
I10
I3
tp87
sg31
I1
sS'textfile'
p88
S'train_db/list.txt'
p89
sS'image_folder'
p90
Nsg36
S'20161209-111345-320c'
p91
sg25
Nsg35
Nsg40
NsS'mean_file'
p92
S'mean.binaryproto'
p93
sS'db_name'
p94
S'train_db'
p95
sS'image_channel_order'
p96
S'BGR'
p97
sS'create_db_log_file'
p98
S'create_train_db.log'
p99
sS'distribution'
p100
(dp101
V1
p102
I8
sV0
p103
I8
sV2
p104
I8
ssg51
(lp105
((idigits.status
Status
p106
g55
bF1481242425.515143
tp107
a((idigits.status
Status
p108
g58
bF1481242428.215214
tp109
a((idigits.status
Status
p110
g61
bF1481242431.518932
tp111
asbag0
(g63
g2
Ntp112
Rp113
(dp114
g17
I0
sg67
I01
sg68
I3
sg69
g70
sg23
S'4016095'
p115
sg72
g73
sg28
g29
sg74
I6
sg75
g76
sg32
I10
sg77
(lp116
S'blue-to-left'
p117
aS'green-to-top'
p118
aS'red-to-right'
p119
asg82
g83
sg42
g43
sg44
I8
sg45
(lp120
g13
asg46
F1.0
sg15
g16
sg33
g34
sg85
g22
sg86
g87
sg31
I1
sg88
S'val_db/list.txt'
p121
sg90
Nsg36
S'20161209-111345-320c'
p122
sg25
Nsg35
Nsg40
Nsg92
Nsg94
S'val_db'
p123
sg96
g97
sg98
S'create_val_db.log'
p124
sg100
(dp125
g102
I2
sg103
I2
sg104
I2
ssg51
(lp126
((idigits.status
Status
p127
g55
bF1481242425.515222
tp128
a((idigits.status
Status
p129
g58
bF1481242428.230154
tp130
a((idigits.status
Status
p131
g61
bF1481242431.484591
tp132
asbasg33
g34
sg86
g87
sg72
g73
sS'pickver_job'
p133
I2
sS'pickver_job_dataset_image'
p134
I1
sg25
NsS'group'
p135
Vtest_group
p136
sS'pickver_job_dataset'
p137
I1
sS'persistent'
p138
I01
sS'_name'
p139
Vtest_dataset
p140
sS'form_data'
p141
(dp142
S'form.compression.data'
p143
g83
sS'form.textfile_labels_file.data'
p144
V
p145
sS'form.textfile_local_train_images.data'
p146
g145
sS'form.resize_height.data'
p147
I10
sS'form.folder_train.data'
p148
g48
sS'form.folder_val_max_per_class.data'
p149
NsS'form.folder_train_min_per_class.data'
p150
I2
sS'form.textfile_val_folder.data'
p151
g145
sS'form.slurm_mem.data'
p152
I10
sS'form.slurm_time_limit.data'
p153
I0
sS'form.backend.data'
p154
g76
sS'form.slurm_selector.data'
p155
I00
sS'form.has_test_folder.data'
p156
I00
sS'form.folder_test_max_per_class.data'
p157
NsS'form.textfile_train_images.data'
p158
g145
sS'form.folder_train_max_per_class.data'
p159
NsS'form.folder_val.data'
p160
g145
sS'form.textfile_use_test.data'
p161
I00
sS'form.folder_val_min_per_class.data'
p162
I2
sS'form.has_val_folder.data'
p163
I00
sS'form.textfile_local_labels_file.data'
p164
g145
sS'form.textfile_use_local_files.data'
p165
I00
sS'form.textfile_local_val_images.data'
p166
g145
sS'form.textfile_test_images.data'
p167
g145
sS'form.dataset_name.data'
p168
g140
sS'form.resize_width.data'
p169
I10
sS'form.textfile_train_folder.data'
p170
g145
sS'form.slurm_cpu_count.data'
p171
I8
sS'form.group_name.data'
p172
g136
sS'form.folder_test.data'
p173
g145
sS'form.folder_test_min_per_class.data'
p174
I2
sS'form.textfile_shuffle.data'
p175
I1
sS'form.folder_pct_val.data'
p176
I25
sS'form.resize_mode.data'
p177
g73
sS'form.resize_channels.data'
p178
V3
p179
sS'form.method.data'
p180
Vfolder
p181
sS'form.textfile_test_folder.data'
p182
g145
sS'form.folder_pct_test.data'
p183
I0
sS'form.encoding.data'
p184
g70
sS'form.textfile_use_val.data'
p185
I00
sS'form.textfile_val_images.data'
p186
g145
sS'form.textfile_local_test_images.data'
p187
g145
ssg46
F1.0
sS'_id'
p188
S'20161209-111345-320c'
p189
sS'pickver_job_dataset_image_classification'
p190
I2
sg51
(lp191
((idigits.status
Status
p192
g55
bF1481242425.514485
tp193
a((idigits.status
Status
p194
g58
bF1481242425.527164
tp195
a((idigits.status
Status
p196
g61
bF1481242431.523327
tp197
asb.