ccopy_reg
_reconstructor
p0
(cdigits.dataset.images.classification.job
ImageClassificationDatasetJob
p1
c__builtin__
object
p2
Ntp3
Rp4
(dp5
S'username'
p6
Vdigits-testsuite
p7
sS'_notes'
p8
NsS'tasks'
p9
(lp10
g0
(cdigits.dataset.tasks.parse_folder
ParseFolderTask
p11
g2
Ntp12
Rp13
(dp14
S'node'
p15
S''
p16
sS'time_limit'
p17
NsS'percent_test'
p18
F0.0
sS'train_count'
p19
NsS'percent_val'
p20
F25.0
sS'val_file'
p21
S'val.txt'
p22
sS'job_num'
p23
S'4015444'
p24
sS'exception'
p25
Vfolder "/tmp/zim021.1042/tmppZW8Ii" does not exist
p26
sS'pickver_task_parsefolder'
p27
I1
sS'test_count'
p28
NsS'system_type'
p29
S'slurm'
p30
sS'max_per_category'
p31
NsS'pickver_task'
p32
I1
sS's_mem'
p33
NsS'labels_file'
p34
S'labels.txt'
p35
sS'current_resources'
p36
(dp37
S'parse_folder_task_pool'
p38
(lp39
(I46913983164688
I1
tp40
assS'job_id'
p41
S'20161209-103945-68e6'
p42
sS'train_file'
p43
S'train.txt'
p44
sS'traceback'
p45
NsS'label_count'
p46
NsS'job_dir'
p47
S'/data/zim021/digits-proj/DIGITS/tmpuZ2vMt/20161209-103945-68e6'
p48
sS's_cpu_count'
p49
NsS'parents'
p50
NsS'progress'
p51
I0
sS'folder'
p52
V/tmp/zim021.1042/tmppZW8Ii
p53
sS'min_per_category'
p54
I2
sS'val_count'
p55
NsS'status_history'
p56
(lp57
((idigits.status
Status
p58
S'I'
p60
bF1481240385.911135
tp61
a((idigits.status
Status
p62
S'R'
p63
bF1481240385.93862
tp64
asbag0
(cdigits.dataset.tasks.create_db
CreateDbTask
p65
g2
Ntp66
Rp67
(dp68
g17
I0
sS'shuffle'
p69
I01
sS'pickver_task_createdb'
p70
I3
sS'encoding'
p71
Vpng
p72
sg23
g16
sS'resize_mode'
p73
Vsquash
p74
sg29
g30
sS'entries_count'
p75
NsS'backend'
p76
Vlmdb
p77
sg33
I10
sS'compression'
p78
S'none'
p79
sg47
g48
sg50
(lp80
g13
asg51
I0
sg15
g16
sg34
g35
sS'input_file'
p81
g44
sS'image_dims'
p82
(I10
I10
I3
tp83
sS'db_name'
p84
S'train_db'
p85
sg32
I1
sS'image_folder'
p86
Nsg41
S'20161209-103945-68e6'
p87
sg25
Nsg45
NsS'mean_file'
p88
S'mean.binaryproto'
p89
sg49
I8
sS'image_channel_order'
p90
S'BGR'
p91
sS'create_db_log_file'
p92
S'create_train_db.log'
p93
sS'distribution'
p94
Nsg56
(lp95
((idigits.status
Status
p96
g60
bF1481240385.911243
tp97
asbag0
(g65
g2
Ntp98
Rp99
(dp100
g17
I0
sg69
I01
sg70
I3
sg71
g72
sg23
g16
sg73
g74
sg29
g30
sg75
Nsg76
g77
sg33
I10
sg78
g79
sg47
g48
sg50
(lp101
g13
asg51
I0
sg15
g16
sg34
g35
sg81
g22
sg82
g83
sg84
S'val_db'
p102
sg32
I1
sg86
Nsg41
S'20161209-103945-68e6'
p103
sg25
Nsg45
Nsg88
Nsg49
I8
sg90
g91
sg92
S'create_val_db.log'
p104
sg94
Nsg56
(lp105
((idigits.status
Status
p106
g60
bF1481240385.911313
tp107
asbasg34
g35
sg82
g83
sg73
g74
sS'pickver_job'
p108
I2
sS'pickver_job_dataset_image'
p109
I1
sg25
NsS'group'
p110
Vtest_group
p111
sS'pickver_job_dataset'
p112
I1
sS'persistent'
p113
I01
sS'_name'
p114
Vtest_dataset
p115
sS'form_data'
p116
(dp117
S'form.compression.data'
p118
g79
sS'form.textfile_labels_file.data'
p119
V
p120
sS'form.textfile_local_train_images.data'
p121
g120
sS'form.resize_height.data'
p122
I10
sS'form.folder_train.data'
p123
g53
sS'form.folder_val_max_per_class.data'
p124
NsS'form.folder_train_min_per_class.data'
p125
I2
sS'form.textfile_val_folder.data'
p126
g120
sS'form.slurm_mem.data'
p127
I10
sS'form.slurm_time_limit.data'
p128
I0
sS'form.backend.data'
p129
g77
sS'form.slurm_selector.data'
p130
I00
sS'form.has_test_folder.data'
p131
I00
sS'form.folder_test_max_per_class.data'
p132
NsS'form.textfile_train_images.data'
p133
g120
sS'form.folder_train_max_per_class.data'
p134
NsS'form.folder_val.data'
p135
g120
sS'form.textfile_use_test.data'
p136
I00
sS'form.folder_val_min_per_class.data'
p137
I2
sS'form.has_val_folder.data'
p138
I00
sS'form.textfile_local_labels_file.data'
p139
g120
sS'form.textfile_use_local_files.data'
p140
I00
sS'form.textfile_local_val_images.data'
p141
g120
sS'form.textfile_test_images.data'
p142
g120
sS'form.dataset_name.data'
p143
g115
sS'form.resize_width.data'
p144
I10
sS'form.textfile_train_folder.data'
p145
g120
sS'form.slurm_cpu_count.data'
p146
I8
sS'form.group_name.data'
p147
g111
sS'form.folder_test.data'
p148
g120
sS'form.folder_test_min_per_class.data'
p149
I2
sS'form.textfile_shuffle.data'
p150
I1
sS'form.folder_pct_val.data'
p151
I25
sS'form.resize_mode.data'
p152
g74
sS'form.resize_channels.data'
p153
V3
p154
sS'form.method.data'
p155
Vfolder
p156
sS'form.textfile_test_folder.data'
p157
g120
sS'form.folder_pct_test.data'
p158
I0
sS'form.encoding.data'
p159
g72
sS'form.textfile_use_val.data'
p160
I00
sS'form.textfile_val_images.data'
p161
g120
sS'form.textfile_local_test_images.data'
p162
g120
ssg51
I0
sS'_id'
p163
S'20161209-103945-68e6'
p164
sS'pickver_job_dataset_image_classification'
p165
I2
sg56
(lp166
((idigits.status
Status
p167
g60
bF1481240385.910619
tp168
a((idigits.status
Status
p169
g63
bF1481240385.929145
tp170
asb.