ccopy_reg
_reconstructor
p0
(cdigits.dataset.images.generic.job
GenericImageDatasetJob
p1
c__builtin__
object
p2
Ntp3
Rp4
(dp5
S'username'
p6
Vdigits-testsuite
p7
sS'_notes'
p8
NsS'tasks'
p9
(lp10
g0
(cdigits.dataset.tasks.analyze_db
AnalyzeDbTask
p11
g2
Ntp12
Rp13
(dp14
S'time_limit'
p15
I0
sS'pickver_task_analyzedb'
p16
I1
sS'node'
p17
S''
p18
sS'analyze_db_log_file'
p19
S'analyze_db_training-images.log'
p20
sS'job_num'
p21
S'4015420'
p22
sS'force_same_shape'
p23
I1
sS'system_type'
p24
S'slurm'
p25
sS'pickver_task'
p26
I1
sS's_cpu_count'
p27
I8
sS'backend'
p28
S'lmdb'
p29
sS's_mem'
p30
I10
sS'exception'
p31
NsS'current_resources'
p32
(dp33
S'analyze_db_task_pool'
p34
(lp35
(I46913983168016
I1
tp36
assS'job_id'
p37
S'20161209-102452-c5e8'
p38
sS'database'
p39
V/tmp/zim021.1042/tmpttPcNG/train_images
p40
sS'traceback'
p41
NsS'image_channels'
p42
NsS'image_width'
p43
NsS'job_dir'
p44
S'/data/zim021/digits-proj/DIGITS/tmpbESqUM/20161209-102452-c5e8'
p45
sS'image_height'
p46
NsS'parents'
p47
NsS'progress'
p48
I0
sS'image_count'
p49
NsS'status_history'
p50
(lp51
((idigits.status
Status
p52
S'I'
p54
bF1481239492.341489
tp55
a((idigits.status
Status
p56
S'R'
p57
bF1481239492.352739
tp58
asS'purpose'
p59
S'Training Images'
p60
sbag0
(g11
g2
Ntp61
Rp62
(dp63
g15
I0
sg16
I1
sg17
g18
sg19
S'analyze_db_training-labels.log'
p64
sg21
S'4015419'
p65
sg23
I1
sg24
g25
sg26
I1
sg27
I8
sg28
g29
sg30
I10
sg31
Nsg32
(dp66
g34
(lp67
(I46913983168016
I1
tp68
assg37
S'20161209-102452-c5e8'
p69
sg39
V/tmp/zim021.1042/tmpttPcNG/train_labels
p70
sg41
Nsg42
Nsg43
Nsg44
g45
sg46
Nsg47
Nsg48
I0
sg49
Nsg50
(lp71
((idigits.status
Status
p72
g54
bF1481239492.341621
tp73
a((idigits.status
Status
p74
g57
bF1481239492.365229
tp75
asg59
S'Training Labels'
p76
sbag0
(g11
g2
Ntp77
Rp78
(dp79
g15
I0
sg16
I1
sg17
g18
sg19
S'analyze_db_validation-images.log'
p80
sg21
S'4015421'
p81
sg23
I1
sg24
g25
sg26
I1
sg27
I8
sg28
g29
sg30
I10
sg31
Nsg32
(dp82
g34
(lp83
(I46913983168016
I1
tp84
assg37
S'20161209-102452-c5e8'
p85
sg39
V/tmp/zim021.1042/tmpttPcNG/val_images
p86
sg41
Nsg42
Nsg43
Nsg44
g45
sg46
Nsg47
Nsg48
I0
sg49
Nsg50
(lp87
((idigits.status
Status
p88
g54
bF1481239492.341686
tp89
a((idigits.status
Status
p90
g57
bF1481239492.380649
tp91
asg59
S'Validation Images'
p92
sbag0
(g11
g2
Ntp93
Rp94
(dp95
g15
I0
sg16
I1
sg17
g18
sg19
S'analyze_db_validation-labels.log'
p96
sg21
S'4015422'
p97
sg23
I1
sg24
g25
sg26
I1
sg27
I8
sg28
g29
sg30
I10
sg31
Nsg32
(dp98
g34
(lp99
(I46913983168016
I1
tp100
assg37
S'20161209-102452-c5e8'
p101
sg39
V/tmp/zim021.1042/tmpttPcNG/val_labels
p102
sg41
Nsg42
Nsg43
Nsg44
g45
sg46
Nsg47
Nsg48
I0
sg49
Nsg50
(lp103
((idigits.status
Status
p104
g54
bF1481239492.341744
tp105
a((idigits.status
Status
p106
g57
bF1481239492.393554
tp107
asg59
S'Validation Labels'
p108
sbasS'image_dims'
p109
NsS'resize_mode'
p110
NsS'mean_file'
p111
V/tmp/zim021.1042/tmpttPcNG/train_mean.binaryproto
p112
sS'pickver_job'
p113
I2
sS'pickver_job_dataset_image_generic'
p114
I1
sS'pickver_job_dataset_image'
p115
I1
sg31
NsS'group'
p116
Vtest_group
p117
sS'persistent'
p118
I01
sS'_name'
p119
Vtest_dataset
p120
sS'form_data'
p121
(dp122
S'form.prebuilt_val_images.data'
p123
g86
sS'form.method.data'
p124
Vprebuilt
p125
sS'form.slurm_selector.data'
p126
I00
sS'form.encoding.data'
p127
Vpng
p128
sS'form.resize_channels.data'
p129
V3
p130
sS'form.resize_height.data'
p131
I256
sS'form.force_same_shape.data'
p132
I1
sS'form.slurm_cpu_count.data'
p133
I8
sS'form.resize_mode.data'
p134
Vsquash
p135
sS'form.dataset_name.data'
p136
g120
sS'form.group_name.data'
p137
g117
sS'form.resize_width.data'
p138
I256
sS'form.slurm_mem.data'
p139
I10
sS'form.slurm_time_limit.data'
p140
I0
sS'form.prebuilt_val_labels.data'
p141
g102
sS'form.prebuilt_train_images.data'
p142
g40
sS'form.prebuilt_mean_file.data'
p143
g112
sS'form.prebuilt_train_labels.data'
p144
g70
ssg48
I0
sS'_id'
p145
S'20161209-102452-c5e8'
p146
sS'pickver_job_dataset'
p147
I1
sg50
(lp148
((idigits.status
Status
p149
g54
bF1481239492.340973
tp150
a((idigits.status
Status
p151
g57
bF1481239492.350156
tp152
asb.