ccopy_reg
_reconstructor
p0
(cdigits.model.images.classification.job
ImageClassificationModelJob
p1
c__builtin__
object
p2
Ntp3
Rp4
(dp5
S'username'
p6
Va
p7
sS'_notes'
p8
NsS'tasks'
p9
(lp10
g0
(cdigits.model.tasks.caffe_train
CaffeTrainTask
p11
g2
Ntp12
Rp13
(dp14
S'shuffle'
p15
I01
sS'snapshot_interval'
p16
F1.0
sS'train_outputs'
p17
ccollections
OrderedDict
p18
((lp19
(lp20
S'epoch'
p21
ag0
(cdigits.model.tasks.train
NetworkOutput
p22
c__builtin__
tuple
p23
(S'Epoch'
p24
(lp25
I0
aF0.11221590909090909
aF0.22443181818181818
aF0.3366477272727273
aF0.44886363636363635
aF0.5610795454545454
aF0.6732954545454546
aF0.7855113636363636
aF0.8977272727272727
aF1.0099431818181819
aF1.1221590909090908
aF1.234375
aF1.3465909090909092
aF1.4588068181818181
aF1.5710227272727273
aF1.6832386363636365
aF1.7954545454545454
aF1.9076704545454546
atp26
tp27
Rp28
aa(lp29
S'loss'
p30
ag0
(g22
g23
(S'SoftmaxWithLoss'
p31
(lp32
F2.6976
aF0.259404
aF0.278189
aF0.16293
aF0.214891
aF0.0302359
aF0.0831994
aF0.0837035
aF0.061666
aF0.0914694
aF0.042057
aF0.0173215
aF0.00520827
aF0.0368996
aF0.00296274
aF0.00859115
aF0.0368104
aF0.00272621
atp33
tp34
Rp35
aa(lp36
S'learning_rate'
p37
ag0
(g22
g23
(S'LearningRate'
p38
(lp39
F0.01
aF0.01
aF0.01
aF0.01
aF0.01
aF0.01
aF0.01
aF0.01
aF0.01
aF0.01
aF0.01
aF0.01
aF0.01
aF0.01
aF0.01
aF0.01
aF0.01
aF0.01
atp40
tp41
Rp42
aatp43
Rp44
sS'val_outputs'
p45
g18
((lp46
(lp47
g21
ag0
(g22
g23
(g24
(lp48
I0
aF1.0
atp49
tp50
Rp51
aa(lp52
S'accuracy'
p53
ag0
(g22
g23
(S'Accuracy'
p54
(lp55
F0.134795
aF0.979544
atp56
tp57
Rp58
aa(lp59
S'loss'
p60
ag0
(g22
g23
(S'SoftmaxWithLoss'
p61
(lp62
F2.62217
aF0.0640542
atp63
tp64
Rp65
aatp66
Rp67
sS'loaded_snapshot_epoch'
p68
NsS'pretrained_model'
p69
NsS'deploy_file'
p70
S'deploy.prototxt'
p71
sS'current_iteration'
p72
I1408
sS'crop_size'
p73
NsS'rms_decay'
p74
F0.99
sS'train_epochs'
p75
I30
sS'network'
p76
ccaffe_pb2
NetParameter
p77
(tRp78
(dp79
S'serialized'
p80
S'\n\x05LeNet\xa2\x06-\n\ntrain-data\x12\x04Data"\x04data"\x05labelB\x07"\x05train\xda\x06\x02 @\xa2\x06)\n\x08val-data\x12\x04Data"\x04data"\x05labelB\x05"\x03val\xda\x06\x02  \xa2\x06$\n\x05scale\x12\x05Power\x1a\x04data"\x06scaled\xd2\x07\x05\x15\xcd\xccL<\xa2\x06P\n\x05conv1\x12\x0bConvolution\x1a\x06scaled"\x05conv12\x05\x1d\x00\x00\x80?2\x05\x1d\x00\x00\x00@\xd2\x06\x1c\x08\x14 \x050\x01:\x08\n\x06xavierB\n\n\x08constant\xa2\x06\'\n\x05pool1\x12\x07Pooling\x1a\x05conv1"\x05pool1\xca\x07\x06\x08\x00\x10\x02\x18\x02\xa2\x06O\n\x05conv2\x12\x0bConvolution\x1a\x05pool1"\x05conv22\x05\x1d\x00\x00\x80?2\x05\x1d\x00\x00\x00@\xd2\x06\x1c\x082 \x050\x01:\x08\n\x06xavierB\n\n\x08constant\xa2\x06\'\n\x05pool2\x12\x07Pooling\x1a\x05conv2"\x05pool2\xca\x07\x06\x08\x00\x10\x02\x18\x02\xa2\x06I\n\x03ip1\x12\x0cInnerProduct\x1a\x05pool2"\x03ip12\x05\x1d\x00\x00\x80?2\x05\x1d\x00\x00\x00@\xaa\x07\x19\x08\xf4\x03\x1a\x08\n\x06xavier"\n\n\x08constant\xa2\x06\x17\n\x05relu1\x12\x04ReLU\x1a\x03ip1"\x03ip1\xa2\x06D\n\x03ip2\x12\x0cInnerProduct\x1a\x03ip1"\x03ip22\x05\x1d\x00\x00\x80?2\x05\x1d\x00\x00\x00@\xaa\x07\x16\x1a\x08\n\x06xavier"\n\n\x08constant\xa2\x061\n\x08accuracy\x12\x08Accuracy\x1a\x03ip2\x1a\x05label"\x08accuracyB\x05"\x03val\xa2\x063\n\x04loss\x12\x0fSoftmaxWithLoss\x1a\x03ip2\x1a\x05label"\x04lossJ\x08"\x06deploy\xa2\x06*\n\x07softmax\x12\x07Softmax\x1a\x03ip2"\x07softmaxB\x08"\x06deploy'
p81
sbsS'use_mean'
p82
Vimage
p83
sS'model_file'
p84
S'original.prototxt'
p85
sS'job_dir'
p86
S'/data/zim021/digits-proj/DIGITS/digits/jobs/20161128-115920-aa49'
p87
sS'receiving_val_output'
p88
I00
sS'parents'
p89
NsS'caffe_flavor'
p90
S'BVLC'
p91
sS'progress'
p92
F0.06666666666666667
sS'lr_policy'
p93
(dp94
S'policy'
p95
Vstep
p96
sS'stepsize'
p97
F33.0
sS'gamma'
p98
F0.1
ssS'gpu_count'
p99
I1
sS'receiving_train_output'
p100
I00
sS'val_interval'
p101
F1.0
sS'current_epoch'
p102
F2.0
sS'random_seed'
p103
NsS'saving_snapshot'
p104
I00
sS'pickver_task_caffe_train'
p105
I5
sg37
F0.01
sS'loaded_snapshot_file'
p106
NsS'batch_size'
p107
NsS'digits_version'
p108
S'5.1-dev'
p109
sS'job'
p110
g4
sS'pickver_task_train'
p111
I2
sS'current_resources'
p112
NsS'pickver_task'
p113
I1
sS'job_id'
p114
S'20161128-115920-aa49'
p115
sS'exception'
p116
NsS'data_aug'
p117
(dp118
S'hsv_h'
p119
F0.02
sS'hsv_use'
p120
I00
sS'flip'
p121
Vnone
p122
sS'quad_rot'
p123
Vnone
p124
sS'scale'
p125
F0.0
sS'noise'
p126
F0.0
sS'hsv_s'
p127
F0.04
sS'rot'
p128
I0
sS'hsv_v'
p129
F0.06
ssS'selected_gpus'
p130
NsS'solver'
p131
ccaffe_pb2
SolverParameter
p132
(tRp133
(dp134
g80
S'\x18\xd5\x03 \xc0\x05-\n\xd7#<0O8\x80\xa5\x01B\x04stepM\xcd\xcc\xcc=]fff?e\x17\xb7\xd18h\xba6p\xc0\x05z\x08snapshot\x88\x01\x01\xc2\x01\x12train_val.prototxt\xf0\x01\x00'
p135
sbsS'snapshot_prefix'
p136
S'snapshot'
p137
sS'traceback'
p138
NsS'framework_id'
p139
S'caffe'
p140
sS'status_history'
p141
(lp142
((idigits.status
Status
p143
S'I'
p145
bF1480294760.924251
tp146
a((idigits.status
Status
p147
S'R'
p148
bF1480294762.193977
tp149
a((idigits.status
Status
p150
S'A'
p151
bF1480294771.556841
tp152
asS'last_train_update'
p153
F1480294769.761792
sS'train_val_file'
p154
S'train_val.prototxt'
p155
sS'image_mean'
p156
NsS'batch_accumulation'
p157
NsS'caffe_version'
p158
S'1.0.0-rc3'
p159
sS'log_file'
p160
S'caffe_output.log'
p161
sS'solver_file'
p162
S'solver.prototxt'
p163
sS'solver_type'
p164
VSGD
p165
sbasS'pickver_job'
p166
I2
sS'dataset_id'
p167
S'20161125-161231-08c0'
p168
sS'pickver_job_model_image'
p169
I1
sg116
NsS'group'
p170
V
p171
sS'persistent'
p172
I01
sS'_name'
p173
Vlenet
p174
sS'form_data'
p175
(dp176
S'form.standard_networks.data'
p177
Vlenet
p178
sS'form.learning_rate.data'
p179
(lp180
F0.01
asS'form.model_name.data'
p181
g174
sS'form.aug_flip.data'
p182
g122
sS'form.select_gpus.data'
p183
(lp184
sS'form.framework.data'
p185
Vcaffe
p186
sS'form.dataset.data'
p187
V20161125-161231-08c0
p188
sS'form.python_layer_from_client.data'
p189
I00
sS'form.lr_multistep_values.data'
p190
V50,85
p191
sS'form.aug_hsv_s.data'
p192
F0.04
sS'form.lr_sigmoid_gamma.data'
p193
F0.1
sS'form.lr_policy.data'
p194
g96
sS'form.random_seed.data'
p195
NsS'form.previous_networks.data'
p196
VNone
p197
sS'form.aug_quad_rot.data'
p198
g124
sS'form.rms_decay.data'
p199
F0.99
sS'form.method.data'
p200
Vstandard
p201
sS'form.lr_sigmoid_step.data'
p202
F50.0
sS'form.crop_size.data'
p203
NsS'form.select_gpu_count.data'
p204
I1
sS'form.python_layer_server_file.data'
p205
g171
sS'form.pretrained_networks.data'
p206
VNone
p207
sS'form.solver_type.data'
p208
g165
sS'form.aug_noise.data'
p209
F0.0
sS'form.select_gpus_list.data'
p210
g171
sS'form.shuffle.data'
p211
I01
sS'form.aug_scale.data'
p212
F0.0
sS'form.batch_accumulation.data'
p213
NsS'form.custom_network.data'
p214
g171
sS'form.group_name.data'
p215
g171
sS'form.val_interval.data'
p216
F1.0
sS'form.lr_inv_gamma.data'
p217
F0.1
sS'form.lr_poly_power.data'
p218
F3.0
sS'form.snapshot_interval.data'
p219
F1.0
sS'form.lr_step_size.data'
p220
F33.0
sS'form.aug_hsv_use.data'
p221
I00
sS'form.lr_inv_power.data'
p222
F0.5
sS'form.aug_hsv_v.data'
p223
F0.06
sS'form.custom_network_snapshot.data'
p224
g171
sS'form.lr_step_gamma.data'
p225
F0.1
sS'form.lr_multistep_gamma.data'
p226
F0.5
sS'form.select_gpu.data'
p227
Vnext
p228
sS'form.lr_exp_gamma.data'
p229
F0.95
sS'form.use_mean.data'
p230
g83
sS'form.aug_rot.data'
p231
I0
sS'form.train_epochs.data'
p232
I30
sS'form.batch_size.data'
p233
(lp234
NasS'form.aug_hsv_h.data'
p235
F0.02
ssg92
I0
sS'_id'
p236
S'20161128-115920-aa49'
p237
sS'pickver_job_dataset'
p238
I1
sg141
(lp239
((idigits.status
Status
p240
g145
bF1480294760.913218
tp241
a((idigits.status
Status
p242
g148
bF1480294761.935622
tp243
a((idigits.status
Status
p244
g151
bF1480294771.545697
tp245
asS'pickver_job_model_image_classification'
p246
I1
sb.