ccopy_reg
_reconstructor
p0
(cdigits.dataset.images.generic.job
GenericImageDatasetJob
p1
c__builtin__
object
p2
Ntp3
Rp4
(dp5
S'username'
p6
Va
p7
sS'_notes'
p8
NsS'tasks'
p9
(lp10
g0
(cdigits.dataset.tasks.analyze_db
AnalyzeDbTask
p11
g2
Ntp12
Rp13
(dp14
S'analyze_db_log_file'
p15
S'analyze_db_training-images.log'
p16
sS'pickver_task_analyzedb'
p17
I1
sS'force_same_shape'
p18
I1
sS'purpose'
p19
S'Training Images'
p20
sS'pickver_task'
p21
I1
sS'backend'
p22
S'lmdb'
p23
sS'exception'
p24
NsS'current_resources'
p25
NsS'job_id'
p26
S'20161128-111741-50fc'
p27
sS'database'
p28
V/flush2/zim021/ImageNetSample/train_db
p29
sS'traceback'
p30
NsS'image_channels'
p31
I3
sS'image_width'
p32
I256
sS'job_dir'
p33
S'/data/zim021/digits-proj/DIGITS/digits/jobs/20161128-111741-50fc'
p34
sS'image_height'
p35
I256
sS'parents'
p36
NsS'progress'
p37
F1.0
sS'image_count'
p38
I96218
sS'status_history'
p39
(lp40
((idigits.status
Status
p41
S'I'
p43
bF1480292261.299221
tp44
a((idigits.status
Status
p45
S'R'
p46
bF1480292262.530392
tp47
a((idigits.status
Status
p48
S'D'
p49
bF1480292297.390647
tp50
asbag0
(g11
g2
Ntp51
Rp52
(dp53
g15
S'analyze_db_training-labels.log'
p54
sg17
I1
sg18
I1
sg19
S'Training Labels'
p55
sg21
I1
sg22
g23
sg24
Nsg25
Nsg26
S'20161128-111741-50fc'
p56
sg28
V/flush2/zim021/ImageNetSample/train_db
p57
sg30
Nsg31
I3
sg32
I256
sg33
g34
sg35
I256
sg36
Nsg37
F1.0
sg38
I96218
sg39
(lp58
((idigits.status
Status
p59
g43
bF1480292261.299386
tp60
a((idigits.status
Status
p61
g46
bF1480292262.542701
tp62
a((idigits.status
Status
p63
g49
bF1480292279.59331
tp64
asbag0
(g11
g2
Ntp65
Rp66
(dp67
g15
S'analyze_db_validation-images.log'
p68
sg17
I1
sg18
I1
sg19
S'Validation Images'
p69
sg21
I1
sg22
g23
sg24
Nsg25
Nsg26
S'20161128-111741-50fc'
p70
sg28
V/flush2/zim021/ImageNetSample/val_db/
p71
sg30
Nsg31
I3
sg32
I256
sg33
g34
sg35
I256
sg36
Nsg37
F1.0
sg38
I31898
sg39
(lp72
((idigits.status
Status
p73
g43
bF1480292261.299449
tp74
a((idigits.status
Status
p75
g46
bF1480292262.555184
tp76
a((idigits.status
Status
p77
g49
bF1480292280.195889
tp78
asbag0
(g11
g2
Ntp79
Rp80
(dp81
g15
S'analyze_db_validation-labels.log'
p82
sg17
I1
sg18
I1
sg19
S'Validation Labels'
p83
sg21
I1
sg22
g23
sg24
Nsg25
Nsg26
S'20161128-111741-50fc'
p84
sg28
V/flush2/zim021/ImageNetSample/val_db
p85
sg30
Nsg31
I3
sg32
I256
sg33
g34
sg35
I256
sg36
Nsg37
F1.0
sg38
I31898
sg39
(lp86
((idigits.status
Status
p87
g43
bF1480292261.299514
tp88
a((idigits.status
Status
p89
g46
bF1480292262.565889
tp90
a((idigits.status
Status
p91
g49
bF1480292271.07568
tp92
asbasS'image_dims'
p93
NsS'resize_mode'
p94
NsS'mean_file'
p95
V/flush2/zim021/ImageNetSample/mean.binaryproto
p96
sS'pickver_job'
p97
I2
sS'pickver_job_dataset_image_generic'
p98
I1
sS'pickver_job_dataset_image'
p99
I1
sg24
NsS'group'
p100
V
p101
sS'persistent'
p102
I01
sS'_name'
p103
Vimagenet
p104
sS'form_data'
p105
(dp106
S'form.prebuilt_val_images.data'
p107
g71
sS'form.method.data'
p108
Vprebuilt
p109
sS'form.encoding.data'
p110
Vpng
p111
sS'form.resize_channels.data'
p112
V3
p113
sS'form.resize_height.data'
p114
I256
sS'form.prebuilt_val_labels.data'
p115
g85
sS'form.prebuilt_train_labels.data'
p116
g57
sS'form.prebuilt_mean_file.data'
p117
g96
sS'form.group_name.data'
p118
g101
sS'form.resize_mode.data'
p119
Vsquash
p120
sS'form.force_same_shape.data'
p121
I1
sS'form.prebuilt_train_images.data'
p122
g29
sS'form.dataset_name.data'
p123
g104
sS'form.resize_width.data'
p124
I256
ssg37
F1.0
sS'_id'
p125
S'20161128-111741-50fc'
p126
sS'pickver_job_dataset'
p127
I1
sg39
(lp128
((idigits.status
Status
p129
g43
bF1480292261.298465
tp130
a((idigits.status
Status
p131
g46
bF1480292262.414858
tp132
a((idigits.status
Status
p133
g49
bF1480292297.622232
tp134
asb.