ccopy_reg
_reconstructor
p0
(cdigits.dataset.images.classification.job
ImageClassificationDatasetJob
p1
c__builtin__
object
p2
Ntp3
Rp4
(dp5
S'username'
p6
Vdigits-testsuite
p7
sS'_notes'
p8
NsS'tasks'
p9
(lp10
g0
(cdigits.dataset.tasks.parse_folder
ParseFolderTask
p11
g2
Ntp12
Rp13
(dp14
S'node'
p15
S''
p16
sS'time_limit'
p17
NsS'percent_test'
p18
F0.0
sS'train_count'
p19
I24
sS'percent_val'
p20
F25.0
sS'val_file'
p21
S'val.txt'
p22
sS'job_num'
p23
S'4016075'
p24
sS'exception'
p25
NsS'pickver_task_parsefolder'
p26
I1
sS'test_count'
p27
I0
sS'system_type'
p28
S'slurm'
p29
sS'max_per_category'
p30
NsS'pickver_task'
p31
I1
sS's_mem'
p32
NsS'labels_file'
p33
S'labels.txt'
p34
sS'current_resources'
p35
NsS'job_id'
p36
S'20161209-111307-99d5'
p37
sS'train_file'
p38
S'train.txt'
p39
sS'traceback'
p40
NsS'label_count'
p41
I3
sS'job_dir'
p42
S'/data/zim021/digits-proj/DIGITS/tmp/tmpyzXVAu/20161209-111307-99d5'
p43
sS's_cpu_count'
p44
NsS'parents'
p45
NsS'progress'
p46
F1.0
sS'folder'
p47
V/data/zim021/digits-proj/DIGITS/tmp/tmp8OmVwb
p48
sS'min_per_category'
p49
I2
sS'val_count'
p50
I6
sS'status_history'
p51
(lp52
((idigits.status
Status
p53
S'I'
p55
bF1481242387.098294
tp56
a((idigits.status
Status
p57
S'R'
p58
bF1481242387.111893
tp59
a((idigits.status
Status
p60
S'D'
p61
bF1481242389.53911
tp62
asbag0
(cdigits.dataset.tasks.create_db
CreateDbTask
p63
g2
Ntp64
Rp65
(dp66
g17
I0
sS'shuffle'
p67
I01
sS'pickver_task_createdb'
p68
I3
sS'encoding'
p69
Vpng
p70
sg23
S'4016076'
p71
sS'resize_mode'
p72
Vsquash
p73
sg28
g29
sS'entries_count'
p74
I24
sS'backend'
p75
Vlmdb
p76
sg32
I10
sS'_labels'
p77
(lp78
S'blue-to-left'
p79
aS'green-to-top'
p80
aS'red-to-right'
p81
asS'compression'
p82
S'none'
p83
sg42
g43
sg44
I8
sg45
(lp84
g13
asg46
F1.0
sg15
g16
sg33
g34
sS'input_file'
p85
g39
sS'image_dims'
p86
(I10
I10
I3
tp87
sg31
I1
sS'image_folder'
p88
Nsg36
S'20161209-111307-99d5'
p89
sg25
Nsg35
Nsg40
NsS'mean_file'
p90
S'mean.binaryproto'
p91
sS'db_name'
p92
S'train_db'
p93
sS'image_channel_order'
p94
S'BGR'
p95
sS'create_db_log_file'
p96
S'create_train_db.log'
p97
sS'distribution'
p98
(dp99
V1
p100
I8
sV0
p101
I8
sV2
p102
I8
ssg51
(lp103
((idigits.status
Status
p104
g55
bF1481242387.09842
tp105
a((idigits.status
Status
p106
g58
bF1481242389.544902
tp107
a((idigits.status
Status
p108
g61
bF1481242392.950129
tp109
asbag0
(g63
g2
Ntp110
Rp111
(dp112
g17
I0
sg67
I01
sg68
I3
sg69
g70
sg23
S'4016077'
p113
sg72
g73
sg28
g29
sg74
I6
sg75
g76
sg32
I10
sg77
(lp114
S'blue-to-left'
p115
aS'green-to-top'
p116
aS'red-to-right'
p117
asg82
g83
sg42
g43
sg44
I8
sg45
(lp118
g13
asg46
F1.0
sg15
g16
sg33
g34
sg85
g22
sg86
g87
sg31
I1
sg88
Nsg36
S'20161209-111307-99d5'
p119
sg25
Nsg35
Nsg40
Nsg90
Nsg92
S'val_db'
p120
sg94
g95
sg96
S'create_val_db.log'
p121
sg98
(dp122
g100
I2
sg101
I2
sg102
I2
ssg51
(lp123
((idigits.status
Status
p124
g55
bF1481242387.098492
tp125
a((idigits.status
Status
p126
g58
bF1481242389.559146
tp127
a((idigits.status
Status
p128
g61
bF1481242393.011592
tp129
asbasg33
g34
sg86
g87
sg72
g73
sS'pickver_job'
p130
I2
sS'pickver_job_dataset_image'
p131
I1
sg25
NsS'group'
p132
Vtest_group
p133
sS'pickver_job_dataset'
p134
I1
sS'persistent'
p135
I01
sS'_name'
p136
Vtest_dataset
p137
sS'form_data'
p138
(dp139
S'form.compression.data'
p140
g83
sS'form.textfile_labels_file.data'
p141
V
p142
sS'form.textfile_local_train_images.data'
p143
g142
sS'form.resize_height.data'
p144
I10
sS'form.folder_train.data'
p145
g48
sS'form.folder_val_max_per_class.data'
p146
NsS'form.folder_train_min_per_class.data'
p147
I2
sS'form.textfile_val_folder.data'
p148
g142
sS'form.slurm_mem.data'
p149
I10
sS'form.slurm_time_limit.data'
p150
I0
sS'form.backend.data'
p151
g76
sS'form.slurm_selector.data'
p152
I00
sS'form.has_test_folder.data'
p153
I00
sS'form.folder_test_max_per_class.data'
p154
NsS'form.textfile_train_images.data'
p155
g142
sS'form.folder_train_max_per_class.data'
p156
NsS'form.folder_val.data'
p157
g142
sS'form.textfile_use_test.data'
p158
I00
sS'form.folder_val_min_per_class.data'
p159
I2
sS'form.has_val_folder.data'
p160
I00
sS'form.textfile_local_labels_file.data'
p161
g142
sS'form.textfile_use_local_files.data'
p162
I00
sS'form.textfile_local_val_images.data'
p163
g142
sS'form.textfile_test_images.data'
p164
g142
sS'form.dataset_name.data'
p165
g137
sS'form.resize_width.data'
p166
I10
sS'form.textfile_train_folder.data'
p167
g142
sS'form.slurm_cpu_count.data'
p168
I8
sS'form.group_name.data'
p169
g133
sS'form.folder_test.data'
p170
g142
sS'form.folder_test_min_per_class.data'
p171
I2
sS'form.textfile_shuffle.data'
p172
I1
sS'form.folder_pct_val.data'
p173
I25
sS'form.resize_mode.data'
p174
g73
sS'form.resize_channels.data'
p175
V3
p176
sS'form.method.data'
p177
Vfolder
p178
sS'form.textfile_test_folder.data'
p179
g142
sS'form.folder_pct_test.data'
p180
I0
sS'form.encoding.data'
p181
g70
sS'form.textfile_use_val.data'
p182
I00
sS'form.textfile_val_images.data'
p183
g142
sS'form.textfile_local_test_images.data'
p184
g142
ssg46
F1.0
sS'_id'
p185
S'20161209-111307-99d5'
p186
sS'pickver_job_dataset_image_classification'
p187
I2
sg51
(lp188
((idigits.status
Status
p189
g55
bF1481242387.097794
tp190
a((idigits.status
Status
p191
g58
bF1481242387.11026
tp192
a((idigits.status
Status
p193
g61
bF1481242393.054312
tp194
asb.