ccopy_reg
_reconstructor
p0
(cdigits.model.images.classification.job
ImageClassificationModelJob
p1
c__builtin__
object
p2
Ntp3
Rp4
(dp5
S'username'
p6
Vzim
p7
sS'_notes'
p8
NsS'tasks'
p9
(lp10
g0
(cdigits.model.tasks.caffe_train
CaffeTrainTask
p11
g2
Ntp12
Rp13
(dp14
S'shuffle'
p15
I01
sS'snapshot_interval'
p16
F1.0
sS'train_outputs'
p17
ccollections
OrderedDict
p18
((lp19
tp20
Rp21
sS'val_outputs'
p22
g18
((lp23
tp24
Rp25
sS'loaded_snapshot_epoch'
p26
NsS'pretrained_model'
p27
NsS'deploy_file'
p28
S'deploy.prototxt'
p29
sS'current_iteration'
p30
I0
sS'crop_size'
p31
NsS'rms_decay'
p32
F0.99
sS'train_epochs'
p33
I30
sS'network'
p34
ccaffe_pb2
NetParameter
p35
(tRp36
(dp37
S'serialized'
p38
S'\n\x05LeNet\xa2\x06-\n\ntrain-data\x12\x04Data"\x04data"\x05labelB\x07"\x05train\xda\x06\x02 @\xa2\x06)\n\x08val-data\x12\x04Data"\x04data"\x05labelB\x05"\x03val\xda\x06\x02  \xa2\x06$\n\x05scale\x12\x05Power\x1a\x04data"\x06scaled\xd2\x07\x05\x15\xcd\xccL<\xa2\x06P\n\x05conv1\x12\x0bConvolution\x1a\x06scaled"\x05conv12\x05\x1d\x00\x00\x80?2\x05\x1d\x00\x00\x00@\xd2\x06\x1c\x08\x14 \x050\x01:\x08\n\x06xavierB\n\n\x08constant\xa2\x06\'\n\x05pool1\x12\x07Pooling\x1a\x05conv1"\x05pool1\xca\x07\x06\x08\x00\x10\x02\x18\x02\xa2\x06O\n\x05conv2\x12\x0bConvolution\x1a\x05pool1"\x05conv22\x05\x1d\x00\x00\x80?2\x05\x1d\x00\x00\x00@\xd2\x06\x1c\x082 \x050\x01:\x08\n\x06xavierB\n\n\x08constant\xa2\x06\'\n\x05pool2\x12\x07Pooling\x1a\x05conv2"\x05pool2\xca\x07\x06\x08\x00\x10\x02\x18\x02\xa2\x06I\n\x03ip1\x12\x0cInnerProduct\x1a\x05pool2"\x03ip12\x05\x1d\x00\x00\x80?2\x05\x1d\x00\x00\x00@\xaa\x07\x19\x08\xf4\x03\x1a\x08\n\x06xavier"\n\n\x08constant\xa2\x06\x17\n\x05relu1\x12\x04ReLU\x1a\x03ip1"\x03ip1\xa2\x06D\n\x03ip2\x12\x0cInnerProduct\x1a\x03ip1"\x03ip22\x05\x1d\x00\x00\x80?2\x05\x1d\x00\x00\x00@\xaa\x07\x16\x1a\x08\n\x06xavier"\n\n\x08constant\xa2\x061\n\x08accuracy\x12\x08Accuracy\x1a\x03ip2\x1a\x05label"\x08accuracyB\x05"\x03val\xa2\x063\n\x04loss\x12\x0fSoftmaxWithLoss\x1a\x03ip2\x1a\x05label"\x04lossJ\x08"\x06deploy\xa2\x06*\n\x07softmax\x12\x07Softmax\x1a\x03ip2"\x07softmaxB\x08"\x06deploy'
p39
sbsS'use_mean'
p40
Vimage
p41
sS'model_file'
p42
S'original.prototxt'
p43
sS'job_dir'
p44
S'/data/zim021/digits-proj/DIGITS/digits/jobs/20161125-165918-9f5f'
p45
sS'receiving_val_output'
p46
I00
sS'parents'
p47
NsS'caffe_flavor'
p48
S'BVLC'
p49
sS'progress'
p50
I0
sS'lr_policy'
p51
(dp52
S'policy'
p53
Vstep
p54
sS'stepsize'
p55
F33.0
sS'gamma'
p56
F0.1
ssS'gpu_count'
p57
I1
sS'receiving_train_output'
p58
I00
sS'val_interval'
p59
F1.0
sS'current_epoch'
p60
I0
sS'random_seed'
p61
NsS'saving_snapshot'
p62
I00
sS'pickver_task_caffe_train'
p63
I5
sS'learning_rate'
p64
F0.01
sS'loaded_snapshot_file'
p65
NsS'batch_size'
p66
NsS'digits_version'
p67
S'5.1-dev'
p68
sS'job'
p69
g4
sS'pickver_task_train'
p70
I2
sS'current_resources'
p71
NsS'pickver_task'
p72
I1
sS'job_id'
p73
S'20161125-165918-9f5f'
p74
sS'exception'
p75
cexceptions
OSError
p76
(I2
S'No such file or directory'
p77
tp78
Rp79
(dp80
S'child_traceback'
p81
S'Traceback (most recent call last):\n  File "/data/zim021/digits-env/lib/python2.7/site-packages/gevent/subprocess.py", line 1198, in _execute_child\n    os.execvp(executable, args)\n  File "/data/zim021/digits-env/lib/python2.7/os.py", line 346, in execvp\n    _execvpe(file, args)\n  File "/data/zim021/digits-env/lib/python2.7/os.py", line 382, in _execvpe\n    func(fullname, *argrest)\nOSError: [Errno 2] No such file or directory\n'
p82
sbsS'data_aug'
p83
(dp84
S'scale'
p85
F0.0
sS'hsv_use'
p86
I00
sS'flip'
p87
Vnone
p88
sS'quad_rot'
p89
Vnone
p90
sS'hsv_h'
p91
F0.02
sS'noise'
p92
F0.0
sS'hsv_s'
p93
F0.04
sS'rot'
p94
I0
sS'hsv_v'
p95
F0.06
ssS'selected_gpus'
p96
NsS'solver'
p97
ccaffe_pb2
SolverParameter
p98
(tRp99
(dp100
g38
S'\x18\xd5\x03 \xc0\x05-\n\xd7#<0O8\x80\xa5\x01B\x04stepM\xcd\xcc\xcc=]fff?e\x17\xb7\xd18h\xba6p\xc0\x05z\x08snapshot\x88\x01\x01\xc2\x01\x12train_val.prototxt\xf0\x01\x00'
p101
sbsS'snapshot_prefix'
p102
S'snapshot'
p103
sS'traceback'
p104
S'Traceback (most recent call last):\n  File "/data/zim021/digits-proj/DIGITS/digits/scheduler.py", line 512, in run_task\n    task.run(resources)\n  File "/data/zim021/digits-proj/DIGITS/digits/task.py", line 226, in run\n    close_fds=False if platform.system() == \'Windows\' else True,\n  File "/data/zim021/digits-env/lib/python2.7/site-packages/gevent/subprocess.py", line 534, in __init__\n    reraise(*exc_info)\n  File "/data/zim021/digits-env/lib/python2.7/site-packages/gevent/subprocess.py", line 503, in __init__\n    restore_signals, start_new_session)\n  File "/data/zim021/digits-env/lib/python2.7/site-packages/gevent/subprocess.py", line 1253, in _execute_child\n    raise child_exception\nOSError: [Errno 2] No such file or directory\n'
p105
sS'framework_id'
p106
S'caffe'
p107
sS'status_history'
p108
(lp109
((idigits.status
Status
p110
S'I'
p112
bF1480053558.686106
tp113
a((idigits.status
Status
p114
S'R'
p115
bF1480053560.222628
tp116
a((idigits.status
Status
p117
S'E'
p118
bF1480053560.264488
tp119
asS'last_train_update'
p120
NsS'train_val_file'
p121
S'train_val.prototxt'
p122
sS'image_mean'
p123
NsS'batch_accumulation'
p124
NsS'caffe_version'
p125
S'1.0.0-rc3'
p126
sS'log_file'
p127
S'caffe_output.log'
p128
sS'solver_file'
p129
S'solver.prototxt'
p130
sS'solver_type'
p131
VSGD
p132
sbasS'pickver_job'
p133
I2
sS'dataset_id'
p134
S'20161125-161231-08c0'
p135
sS'pickver_job_model_image'
p136
I1
sg75
NsS'group'
p137
V
p138
sS'persistent'
p139
I01
sS'_name'
p140
Vlenet2
p141
sS'form_data'
p142
(dp143
S'form.standard_networks.data'
p144
Vlenet
p145
sS'form.learning_rate.data'
p146
(lp147
F0.01
asS'form.aug_flip.data'
p148
g88
sS'form.select_gpus.data'
p149
(lp150
sS'form.framework.data'
p151
Vcaffe
p152
sS'form.dataset.data'
p153
V20161125-161231-08c0
p154
sS'form.python_layer_from_client.data'
p155
I00
sS'form.lr_multistep_values.data'
p156
V50,85
p157
sS'form.aug_hsv_s.data'
p158
F0.04
sS'form.lr_sigmoid_gamma.data'
p159
F0.1
sS'form.lr_policy.data'
p160
g54
sS'form.previous_networks.data'
p161
VNone
p162
sS'form.select_gpu.data'
p163
Vnext
p164
sS'form.aug_quad_rot.data'
p165
g90
sS'form.rms_decay.data'
p166
F0.99
sS'form.method.data'
p167
Vstandard
p168
sS'form.lr_sigmoid_step.data'
p169
F50.0
sS'form.crop_size.data'
p170
NsS'form.select_gpu_count.data'
p171
I1
sS'form.python_layer_server_file.data'
p172
g138
sS'form.pretrained_networks.data'
p173
VNone
p174
sS'form.solver_type.data'
p175
g132
sS'form.aug_noise.data'
p176
F0.0
sS'form.select_gpus_list.data'
p177
g138
sS'form.shuffle.data'
p178
I01
sS'form.aug_scale.data'
p179
F0.0
sS'form.batch_accumulation.data'
p180
NsS'form.batch_size.data'
p181
(lp182
NasS'form.custom_network.data'
p183
g138
sS'form.group_name.data'
p184
g138
sS'form.use_mean.data'
p185
g41
sS'form.lr_inv_gamma.data'
p186
F0.1
sS'form.lr_step_gamma.data'
p187
F0.1
sS'form.snapshot_interval.data'
p188
F1.0
sS'form.lr_step_size.data'
p189
F33.0
sS'form.aug_hsv_use.data'
p190
I00
sS'form.lr_inv_power.data'
p191
F0.5
sS'form.aug_hsv_v.data'
p192
F0.06
sS'form.custom_network_snapshot.data'
p193
g138
sS'form.lr_poly_power.data'
p194
F3.0
sS'form.lr_multistep_gamma.data'
p195
F0.5
sS'form.model_name.data'
p196
g141
sS'form.lr_exp_gamma.data'
p197
F0.95
sS'form.val_interval.data'
p198
F1.0
sS'form.aug_rot.data'
p199
I0
sS'form.train_epochs.data'
p200
I30
sS'form.random_seed.data'
p201
NsS'form.aug_hsv_h.data'
p202
F0.02
ssg50
I0
sS'_id'
p203
S'20161125-165918-9f5f'
p204
sS'pickver_job_dataset'
p205
I1
sg108
(lp206
((idigits.status
Status
p207
g112
bF1480053558.674751
tp208
a((idigits.status
Status
p209
g115
bF1480053559.925807
tp210
a((idigits.status
Status
p211
g118
bF1480053560.644426
tp212
a((idigits.status
Status
p213
g115
bF1480053560.891288
tp214
a((idigits.status
Status
p215
g118
bF1480053561.085817
tp216
asS'pickver_job_model_image_classification'
p217
I1
sb.