ccopy_reg
_reconstructor
p0
(cdigits.model.images.classification.job
ImageClassificationModelJob
p1
c__builtin__
object
p2
Ntp3
Rp4
(dp5
S'username'
p6
Vzim
p7
sS'_notes'
p8
NsS'tasks'
p9
(lp10
g0
(cdigits.model.tasks.caffe_train
CaffeTrainTask
p11
g2
Ntp12
Rp13
(dp14
S'shuffle'
p15
I01
sS'snapshot_interval'
p16
F1.0
sS'caffe_version'
p17
S'1.0.0-rc3'
p18
sS'train_outputs'
p19
ccollections
OrderedDict
p20
((lp21
(lp22
S'epoch'
p23
ag0
(cdigits.model.tasks.train
NetworkOutput
p24
c__builtin__
tuple
p25
(S'Epoch'
p26
(lp27
I0
aF0.11221590909090909
aF0.22443181818181818
aF0.3366477272727273
aF0.44886363636363635
aF0.5610795454545454
aF0.6732954545454546
aF0.7855113636363636
aF0.8977272727272727
aF1.0099431818181819
aF1.1221590909090908
aF1.234375
aF1.3465909090909092
aF1.4588068181818181
aF1.5710227272727273
aF1.6832386363636365
aF1.7954545454545454
aF1.9076704545454546
aF2.0198863636363638
aF2.132102272727273
aF2.2443181818181817
aF2.356534090909091
aF2.46875
aF2.580965909090909
aF2.6931818181818183
aF2.805397727272727
aF2.9176136363636362
aF3.0298295454545454
aF3.1420454545454546
aF3.2542613636363638
aF3.366477272727273
aF3.4786931818181817
aF3.590909090909091
aF3.703125
aF3.815340909090909
aF3.9275568181818183
aF4.0397727272727275
aF4.151988636363637
aF4.264204545454546
aF4.376420454545454
aF4.488636363636363
aF4.6008522727272725
aF4.713068181818182
aF4.825284090909091
aF4.9375
aF5.049715909090909
aF5.161931818181818
aF5.2741477272727275
aF5.386363636363637
aF5.498579545454546
aF5.610795454545454
aF5.723011363636363
aF5.8352272727272725
aF5.947443181818182
aF6.059659090909091
aF6.171875
aF6.284090909090909
aF6.396306818181818
aF6.5085227272727275
aF6.620738636363637
aF6.732954545454546
aF6.845170454545454
aF6.957386363636363
aF7.0696022727272725
aF7.181818181818182
aF7.294034090909091
aF7.40625
aF7.518465909090909
aF7.630681818181818
aF7.7428977272727275
aF7.855113636363637
aF7.967329545454546
aF8.079545454545455
aF8.191761363636363
aF8.303977272727273
aF8.416193181818182
aF8.528409090909092
aF8.640625
aF8.752840909090908
aF8.865056818181818
aF8.977272727272727
aF9.089488636363637
aF9.201704545454545
aF9.313920454545455
aF9.426136363636363
aF9.538352272727273
aF9.650568181818182
aF9.762784090909092
aF9.875
aF9.987215909090908
aF10.099431818181818
aF10.211647727272727
aF10.323863636363637
aF10.436079545454545
aF10.548295454545455
aF10.660511363636363
aF10.772727272727273
aF10.884943181818182
aF10.997159090909092
aF11.109375
aF11.221590909090908
aF11.333806818181818
aF11.446022727272727
aF11.558238636363637
aF11.670454545454545
aF11.782670454545455
aF11.894886363636363
aF12.007102272727273
aF12.119318181818182
aF12.231534090909092
aF12.34375
aF12.455965909090908
aF12.568181818181818
aF12.680397727272727
aF12.792613636363637
aF12.904829545454545
aF13.017045454545455
aF13.129261363636363
aF13.241477272727273
aF13.353693181818182
aF13.465909090909092
aF13.578125
aF13.690340909090908
aF13.802556818181818
aF13.914772727272727
aF14.026988636363637
aF14.139204545454545
aF14.251420454545455
aF14.363636363636363
aF14.475852272727273
aF14.588068181818182
aF14.700284090909092
aF14.8125
aF14.924715909090908
aF15.036931818181818
aF15.149147727272727
aF15.261363636363637
aF15.373579545454545
aF15.485795454545455
aF15.598011363636363
aF15.710227272727273
aF15.822443181818182
aF15.934659090909092
aF16.046875
aF16.15909090909091
aF16.271306818181817
aF16.383522727272727
aF16.495738636363637
aF16.607954545454547
aF16.720170454545453
aF16.832386363636363
aF16.944602272727273
aF17.056818181818183
aF17.16903409090909
aF17.28125
aF17.39346590909091
aF17.505681818181817
aF17.617897727272727
aF17.730113636363637
aF17.842329545454547
aF17.954545454545453
aF18.066761363636363
aF18.178977272727273
aF18.291193181818183
aF18.40340909090909
aF18.515625
aF18.62784090909091
aF18.740056818181817
aF18.852272727272727
aF18.964488636363637
aF19.076704545454547
aF19.188920454545453
aF19.301136363636363
aF19.413352272727273
aF19.525568181818183
aF19.63778409090909
aF19.75
aF19.86221590909091
aF19.974431818181817
aF20.086647727272727
aF20.198863636363637
aF20.311079545454547
aF20.423295454545453
aF20.535511363636363
aF20.647727272727273
aF20.759943181818183
aF20.87215909090909
aF20.984375
aF21.09659090909091
aF21.208806818181817
aF21.321022727272727
aF21.433238636363637
aF21.545454545454547
aF21.657670454545453
aF21.769886363636363
aF21.882102272727273
aF21.994318181818183
aF22.10653409090909
aF22.21875
aF22.33096590909091
aF22.443181818181817
aF22.555397727272727
aF22.667613636363637
aF22.779829545454547
aF22.892045454545453
aF23.004261363636363
aF23.116477272727273
aF23.228693181818183
aF23.34090909090909
aF23.453125
aF23.56534090909091
aF23.677556818181817
aF23.789772727272727
aF23.901988636363637
aF24.014204545454547
aF24.126420454545453
aF24.238636363636363
aF24.350852272727273
aF24.463068181818183
aF24.57528409090909
aF24.6875
aF24.79971590909091
aF24.911931818181817
aF25.024147727272727
aF25.136363636363637
aF25.248579545454547
aF25.360795454545453
aF25.473011363636363
aF25.585227272727273
aF25.697443181818183
aF25.80965909090909
aF25.921875
aF26.03409090909091
aF26.146306818181817
aF26.258522727272727
aF26.370738636363637
aF26.482954545454547
aF26.595170454545453
aF26.707386363636363
aF26.819602272727273
aF26.931818181818183
aF27.04403409090909
aF27.15625
aF27.26846590909091
aF27.380681818181817
aF27.492897727272727
aF27.605113636363637
aF27.717329545454547
aF27.829545454545453
aF27.941761363636363
aF28.053977272727273
aF28.166193181818183
aF28.27840909090909
aF28.390625
aF28.50284090909091
aF28.615056818181817
aF28.727272727272727
aF28.839488636363637
aF28.951704545454547
aF29.063920454545453
aF29.176136363636363
aF29.288352272727273
aF29.400568181818183
aF29.51278409090909
aF29.625
aF29.73721590909091
aF29.849431818181817
aF29.961647727272727
atp28
tp29
Rp30
aa(lp31
S'loss'
p32
ag0
(g24
g25
(S'SoftmaxWithLoss'
p33
(lp34
F2.37305
aF0.270701
aF0.241567
aF0.249367
aF0.362599
aF0.0443237
aF0.0843939
aF0.124011
aF0.0538062
aF0.0907419
aF0.0280581
aF0.0350568
aF0.0191664
aF0.02656
aF0.00494441
aF0.00530986
aF0.0265017
aF0.00401741
aF0.00788294
aF0.023961
aF0.0153738
aF0.0128672
aF0.0209026
aF0.00502839
aF0.0349271
aF0.00383545
aF0.0170901
aF0.000585592
aF0.00589589
aF0.00197647
aF0.0308564
aF0.00435568
aF0.00311471
aF0.00463617
aF0.0120838
aF0.000222578
aF0.00928236
aF0.00110371
aF0.00284134
aF0.000636174
aF0.00506083
aF0.0167626
aF0.000262707
aF0.00511003
aF0.0127944
aF0.0192594
aF0.00686002
aF0.00326078
aF0.0430653
aF0.000433294
aF0.000460382
aF0.0016518
aF0.00275308
aF0.0147504
aF0.000500309
aF0.000679466
aF0.00359133
aF0.00341983
aF0.00832614
aF0.000177669
aF0.0555997
aF0.00132395
aF0.0038179
aF3.45527e-05
aF0.000282123
aF0.000168702
aF0.000433666
aF0.000878957
aF0.000614061
aF0.000204413
aF0.00183938
aF0.00123839
aF0.000517413
aF0.000213457
aF0.000351297
aF0.000458327
aF0.00798784
aF4.40231e-05
aF0.000160439
aF0.00354548
aF8.13019e-05
aF0.000530855
aF0.000413103
aF5.0618e-05
aF0.000201456
aF4.02442e-05
aF0.00075631
aF7.94749e-05
aF0.000262525
aF2.60493e-05
aF0.00137965
aF0.000451163
aF0.000197931
aF2.45081e-05
aF0.000198729
aF8.30688e-05
aF9.93897e-05
aF0.000103643
aF3.06786e-06
aF0.000221472
aF7.41674e-05
aF0.000425765
aF0.000115368
aF6.08228e-05
aF0.000152097
aF0.000214902
aF0.000209577
aF4.25663e-05
aF0.000232353
aF0.000221043
aF0.000207949
aF8.26728e-05
aF4.15774e-05
aF0.000312046
aF8.75959e-06
aF0.00012074
aF6.67606e-05
aF8.71126e-05
aF0.00027836
aF3.52177e-05
aF0.000101199
aF1.32426e-05
aF0.000127038
aF0.000321329
aF6.65333e-05
aF0.00080198
aF0.000113414
aF8.0543e-05
aF0.000348745
aF8.28511e-05
aF0.000389851
aF5.44266e-05
aF0.000178091
aF3.95006e-06
aF0.000143432
aF0.000141587
aF0.000168048
aF0.000453882
aF0.000217285
aF0.000373095
aF4.25206e-05
aF2.91914e-05
aF4.06744e-05
aF7.20607e-06
aF3.83965e-05
aF5.51475e-06
aF8.65761e-05
aF0.000360968
aF1.37613e-05
aF0.000746886
aF2.59637e-05
aF0.000199484
aF6.26913e-06
aF0.000116394
aF0.000104674
aF2.8045e-05
aF0.000458563
aF1.17976e-05
aF7.08913e-05
aF1.71797e-05
aF0.000271617
aF7.96363e-05
aF0.000169132
aF0.000462265
aF0.000153494
aF0.000539534
aF4.10176e-05
aF4.58523e-05
aF6.17056e-05
aF1.67646e-05
aF0.000276447
aF4.72968e-05
aF0.000194637
aF0.000129833
aF3.16284e-06
aF0.000862972
aF5.43736e-05
aF6.16201e-05
aF1.9621e-05
aF0.00019524
aF0.000171385
aF0.000109945
aF6.39605e-05
aF0.000114786
aF5.22023e-05
aF0.000166527
aF0.000100328
aF0.000467059
aF0.000166757
aF0.000102023
aF5.29586e-05
aF0.000115538
aF0.000108112
aF0.000255688
aF2.38598e-05
aF2.58424e-05
aF6.98495e-07
aF4.67138e-05
aF0.000411174
aF7.13717e-06
aF5.33353e-05
aF0.000115883
aF0.000219371
aF3.72896e-05
aF0.000152217
aF0.000254513
aF0.000396232
aF1.8277e-05
aF0.000138596
aF0.000174745
aF2.47748e-05
aF3.69359e-05
aF0.000220051
aF7.56743e-05
aF2.98403e-06
aF6.1527e-05
aF0.000100316
aF0.000338977
aF2.72007e-05
aF0.000321064
aF8.0553e-05
aF0.000134899
aF9.58789e-06
aF0.000150655
aF0.000265839
aF0.000101564
aF0.000117271
aF0.00017022
aF0.000186831
aF0.000138098
aF5.18239e-05
aF0.000231112
aF0.000123575
aF3.45452e-05
aF0.000172171
aF9.05677e-05
aF2.41461e-05
aF0.000189504
aF5.50882e-05
aF1.82916e-05
aF8.43467e-05
aF5.35713e-06
aF6.90673e-05
aF0.000102691
aF0.000151536
aF0.000324482
aF0.000220352
aF2.76616e-06
aF1.5752e-05
aF0.00021207
aF1.07287e-05
aF0.000179497
aF0.000156475
aF0.000191964
aF0.000502441
aF3.29051e-05
aF1.77591e-05
aF4.21886e-05
aF5.20626e-06
aF0.000438689
aF0.000240614
aF0.000163732
aF4.77261e-05
aF1.83009e-05
aF0.000228389
aF5.95125e-05
aF0.000170081
aF6.95679e-06
atp35
tp36
Rp37
aa(lp38
S'learning_rate'
p39
ag0
(g24
g25
(S'LearningRate'
p40
(lp41
F0.01
aF0.01
aF0.01
aF0.01
aF0.01
aF0.01
aF0.01
aF0.01
aF0.01
aF0.01
aF0.01
aF0.01
aF0.01
aF0.01
aF0.01
aF0.01
aF0.01
aF0.01
aF0.01
aF0.01
aF0.01
aF0.01
aF0.01
aF0.01
aF0.01
aF0.01
aF0.01
aF0.01
aF0.01
aF0.01
aF0.01
aF0.01
aF0.01
aF0.01
aF0.01
aF0.01
aF0.01
aF0.01
aF0.01
aF0.01
aF0.01
aF0.01
aF0.01
aF0.01
aF0.01
aF0.01
aF0.01
aF0.01
aF0.01
aF0.01
aF0.01
aF0.01
aF0.01
aF0.01
aF0.01
aF0.01
aF0.01
aF0.01
aF0.01
aF0.01
aF0.01
aF0.01
aF0.01
aF0.01
aF0.01
aF0.01
aF0.01
aF0.01
aF0.01
aF0.01
aF0.01
aF0.01
aF0.01
aF0.01
aF0.01
aF0.01
aF0.01
aF0.01
aF0.01
aF0.01
aF0.01
aF0.01
aF0.01
aF0.01
aF0.01
aF0.01
aF0.01
aF0.01
aF0.01
aF0.001
aF0.001
aF0.001
aF0.001
aF0.001
aF0.001
aF0.001
aF0.001
aF0.001
aF0.001
aF0.001
aF0.001
aF0.001
aF0.001
aF0.001
aF0.001
aF0.001
aF0.001
aF0.001
aF0.001
aF0.001
aF0.001
aF0.001
aF0.001
aF0.001
aF0.001
aF0.001
aF0.001
aF0.001
aF0.001
aF0.001
aF0.001
aF0.001
aF0.001
aF0.001
aF0.001
aF0.001
aF0.001
aF0.001
aF0.001
aF0.001
aF0.001
aF0.001
aF0.001
aF0.001
aF0.001
aF0.001
aF0.001
aF0.001
aF0.001
aF0.001
aF0.001
aF0.001
aF0.001
aF0.001
aF0.001
aF0.001
aF0.001
aF0.001
aF0.001
aF0.001
aF0.001
aF0.001
aF0.001
aF0.001
aF0.001
aF0.001
aF0.001
aF0.001
aF0.001
aF0.001
aF0.001
aF0.001
aF0.001
aF0.001
aF0.001
aF0.001
aF0.001
aF0.001
aF0.001
aF0.001
aF0.001
aF0.001
aF0.001
aF0.001
aF0.001
aF0.001
aF0.001
aF0.0001
aF0.0001
aF0.0001
aF0.0001
aF0.0001
aF0.0001
aF0.0001
aF0.0001
aF0.0001
aF0.0001
aF0.0001
aF0.0001
aF0.0001
aF0.0001
aF0.0001
aF0.0001
aF0.0001
aF0.0001
aF0.0001
aF0.0001
aF0.0001
aF0.0001
aF0.0001
aF0.0001
aF0.0001
aF0.0001
aF0.0001
aF0.0001
aF0.0001
aF0.0001
aF0.0001
aF0.0001
aF0.0001
aF0.0001
aF0.0001
aF0.0001
aF0.0001
aF0.0001
aF0.0001
aF0.0001
aF0.0001
aF0.0001
aF0.0001
aF0.0001
aF0.0001
aF0.0001
aF0.0001
aF0.0001
aF0.0001
aF0.0001
aF0.0001
aF0.0001
aF0.0001
aF0.0001
aF0.0001
aF0.0001
aF0.0001
aF0.0001
aF0.0001
aF0.0001
aF0.0001
aF0.0001
aF0.0001
aF0.0001
aF0.0001
aF0.0001
aF0.0001
aF0.0001
aF0.0001
aF0.0001
aF0.0001
aF0.0001
aF0.0001
aF0.0001
aF0.0001
aF0.0001
aF0.0001
aF0.0001
aF0.0001
aF0.0001
aF0.0001
aF0.0001
aF0.0001
aF0.0001
aF0.0001
aF0.0001
aF0.0001
aF0.0001
aF1e-05
aF1e-05
aF1e-05
atp42
tp43
Rp44
aatp45
Rp46
sS'val_outputs'
p47
g20
((lp48
(lp49
g23
ag0
(g24
g25
(g26
(lp50
I0
aF1.0
aF2.0
aF3.0
aF4.0
aF5.0
aF6.0
aF7.0
aF8.0
aF9.0
aF10.0
aF11.0
aF12.0
aF13.0
aF14.0
aF15.0
aF16.0
aF17.0
aF18.0
aF19.0
aF20.0
aF21.0
aF22.0
aF23.0
aF24.0
aF25.0
aF26.0
aF27.0
aF28.0
aF29.0
aF30.0
atp51
tp52
Rp53
aa(lp54
S'accuracy'
p55
ag0
(g24
g25
(S'Accuracy'
p56
(lp57
F0.125466
aF0.977679
aF0.982543
aF0.983142
aF0.983009
aF0.984408
aF0.98694
aF0.988406
aF0.988006
aF0.987407
aF0.989339
aF0.989805
aF0.989805
aF0.989739
aF0.989872
aF0.989872
aF0.990005
aF0.990005
aF0.990005
aF0.990005
aF0.989939
aF0.989939
aF0.989939
aF0.989939
aF0.989939
aF0.989939
aF0.989939
aF0.989939
aF0.989939
aF0.989939
aF0.990005
atp58
tp59
Rp60
aa(lp61
S'loss'
p62
ag0
(g24
g25
(S'SoftmaxWithLoss'
p63
(lp64
F2.52841
aF0.0728849
aF0.0562987
aF0.0606864
aF0.0579667
aF0.0578101
aF0.0455244
aF0.04752
aF0.0456058
aF0.0500882
aF0.042174
aF0.0422011
aF0.0422645
aF0.0423132
aF0.0423456
aF0.0423679
aF0.0423796
aF0.0423881
aF0.0423919
aF0.0423947
aF0.0423993
aF0.042403
aF0.0424052
aF0.0424079
aF0.0424104
aF0.0424126
aF0.0424147
aF0.0424535
aF0.0424185
aF0.0424204
aF0.0424249
atp65
tp66
Rp67
aatp68
Rp69
sS'loaded_snapshot_epoch'
p70
NsS'pretrained_model'
p71
NsS'deploy_file'
p72
S'deploy.prototxt'
p73
sS'current_iteration'
p74
I21120
sS'gpu_count'
p75
I1
sS'rms_decay'
p76
F0.99
sS'train_epochs'
p77
I30
sS'network'
p78
ccaffe_pb2
NetParameter
p79
(tRp80
(dp81
S'serialized'
p82
S'\n\x05LeNet\xa2\x06-\n\ntrain-data\x12\x04Data"\x04data"\x05labelB\x07"\x05train\xda\x06\x02 @\xa2\x06)\n\x08val-data\x12\x04Data"\x04data"\x05labelB\x05"\x03val\xda\x06\x02  \xa2\x06$\n\x05scale\x12\x05Power\x1a\x04data"\x06scaled\xd2\x07\x05\x15\xcd\xccL<\xa2\x06P\n\x05conv1\x12\x0bConvolution\x1a\x06scaled"\x05conv12\x05\x1d\x00\x00\x80?2\x05\x1d\x00\x00\x00@\xd2\x06\x1c\x08\x14 \x050\x01:\x08\n\x06xavierB\n\n\x08constant\xa2\x06\'\n\x05pool1\x12\x07Pooling\x1a\x05conv1"\x05pool1\xca\x07\x06\x08\x00\x10\x02\x18\x02\xa2\x06O\n\x05conv2\x12\x0bConvolution\x1a\x05pool1"\x05conv22\x05\x1d\x00\x00\x80?2\x05\x1d\x00\x00\x00@\xd2\x06\x1c\x082 \x050\x01:\x08\n\x06xavierB\n\n\x08constant\xa2\x06\'\n\x05pool2\x12\x07Pooling\x1a\x05conv2"\x05pool2\xca\x07\x06\x08\x00\x10\x02\x18\x02\xa2\x06I\n\x03ip1\x12\x0cInnerProduct\x1a\x05pool2"\x03ip12\x05\x1d\x00\x00\x80?2\x05\x1d\x00\x00\x00@\xaa\x07\x19\x08\xf4\x03\x1a\x08\n\x06xavier"\n\n\x08constant\xa2\x06\x17\n\x05relu1\x12\x04ReLU\x1a\x03ip1"\x03ip1\xa2\x06D\n\x03ip2\x12\x0cInnerProduct\x1a\x03ip1"\x03ip22\x05\x1d\x00\x00\x80?2\x05\x1d\x00\x00\x00@\xaa\x07\x16\x1a\x08\n\x06xavier"\n\n\x08constant\xa2\x061\n\x08accuracy\x12\x08Accuracy\x1a\x03ip2\x1a\x05label"\x08accuracyB\x05"\x03val\xa2\x063\n\x04loss\x12\x0fSoftmaxWithLoss\x1a\x03ip2\x1a\x05label"\x04lossJ\x08"\x06deploy\xa2\x06*\n\x07softmax\x12\x07Softmax\x1a\x03ip2"\x07softmaxB\x08"\x06deploy'
p83
sbsS'use_mean'
p84
Vimage
p85
sS'model_file'
p86
S'original.prototxt'
p87
sS'job_dir'
p88
S'/data/zim021/digits-proj/DIGITS/digits/jobs/20161125-161354-9bc8'
p89
sS'receiving_val_output'
p90
I00
sS'parents'
p91
NsS'caffe_flavor'
p92
S'BVLC'
p93
sS'lr_policy'
p94
(dp95
S'policy'
p96
Vstep
p97
sS'stepsize'
p98
F33.0
sS'gamma'
p99
F0.1
ssS'crop_size'
p100
NsS'receiving_train_output'
p101
I00
sS'val_interval'
p102
F1.0
sS'current_epoch'
p103
F30.0
sS'random_seed'
p104
NsS'saving_snapshot'
p105
I00
sS'pickver_task_caffe_train'
p106
I5
sg39
F0.01
sS'loaded_snapshot_file'
p107
NsS'batch_size'
p108
NsS'digits_version'
p109
S'5.1-dev'
p110
sS'job'
p111
g4
sS'pickver_task_train'
p112
I2
sS'current_resources'
p113
NsS'pickver_task'
p114
I1
sS'job_id'
p115
S'20161125-161354-9bc8'
p116
sS'exception'
p117
NsS'data_aug'
p118
(dp119
S'scale'
p120
F0.0
sS'hsv_use'
p121
I00
sS'flip'
p122
Vnone
p123
sS'quad_rot'
p124
Vnone
p125
sS'hsv_h'
p126
F0.02
sS'noise'
p127
F0.0
sS'hsv_s'
p128
F0.04
sS'rot'
p129
I0
sS'hsv_v'
p130
F0.06
ssS'selected_gpus'
p131
NsS'solver'
p132
ccaffe_pb2
SolverParameter
p133
(tRp134
(dp135
g82
S'\x18\xd5\x03 \xc0\x05-\n\xd7#<0O8\x80\xa5\x01B\x04stepM\xcd\xcc\xcc=]fff?e\x17\xb7\xd18h\xba6p\xc0\x05z\x08snapshot\x88\x01\x01\xc2\x01\x12train_val.prototxt\xf0\x01\x00'
p136
sbsS'snapshot_prefix'
p137
S'snapshot'
p138
sS'traceback'
p139
NsS'framework_id'
p140
S'caffe'
p141
sS'status_history'
p142
(lp143
((idigits.status
Status
p144
S'I'
p146
bF1480050834.892348
tp147
a((idigits.status
Status
p148
S'R'
p149
bF1480050836.487336
tp150
a((idigits.status
Status
p151
S'D'
p152
bF1480050949.225095
tp153
asS'last_train_update'
p154
F1480050943.750529
sS'train_val_file'
p155
S'train_val.prototxt'
p156
sS'image_mean'
p157
NsS'batch_accumulation'
p158
NsS'progress'
p159
F1.0
sS'log_file'
p160
S'caffe_output.log'
p161
sS'solver_file'
p162
S'solver.prototxt'
p163
sS'solver_type'
p164
VSGD
p165
sbasS'pickver_job'
p166
I2
sS'dataset_id'
p167
S'20161125-161231-08c0'
p168
sS'pickver_job_model_image'
p169
I1
sg117
NsS'group'
p170
V
p171
sS'persistent'
p172
I01
sS'_name'
p173
Vlenet
p174
sS'form_data'
p175
(dp176
S'form.standard_networks.data'
p177
Vlenet
p178
sS'form.learning_rate.data'
p179
(lp180
F0.01
asS'form.aug_flip.data'
p181
g123
sS'form.select_gpus.data'
p182
(lp183
sS'form.framework.data'
p184
Vcaffe
p185
sS'form.dataset.data'
p186
V20161125-161231-08c0
p187
sS'form.python_layer_from_client.data'
p188
I00
sS'form.lr_multistep_values.data'
p189
V50,85
p190
sS'form.aug_hsv_s.data'
p191
F0.04
sS'form.lr_sigmoid_gamma.data'
p192
F0.1
sS'form.lr_policy.data'
p193
g97
sS'form.previous_networks.data'
p194
VNone
p195
sS'form.select_gpu.data'
p196
Vnext
p197
sS'form.aug_quad_rot.data'
p198
g125
sS'form.rms_decay.data'
p199
F0.99
sS'form.method.data'
p200
Vstandard
p201
sS'form.lr_sigmoid_step.data'
p202
F50.0
sS'form.crop_size.data'
p203
NsS'form.select_gpu_count.data'
p204
I1
sS'form.python_layer_server_file.data'
p205
g171
sS'form.pretrained_networks.data'
p206
VNone
p207
sS'form.solver_type.data'
p208
g165
sS'form.aug_noise.data'
p209
F0.0
sS'form.select_gpus_list.data'
p210
g171
sS'form.shuffle.data'
p211
I01
sS'form.aug_scale.data'
p212
F0.0
sS'form.batch_accumulation.data'
p213
NsS'form.batch_size.data'
p214
(lp215
NasS'form.custom_network.data'
p216
g171
sS'form.group_name.data'
p217
g171
sS'form.use_mean.data'
p218
g85
sS'form.lr_inv_gamma.data'
p219
F0.1
sS'form.lr_step_gamma.data'
p220
F0.1
sS'form.snapshot_interval.data'
p221
F1.0
sS'form.lr_step_size.data'
p222
F33.0
sS'form.aug_hsv_use.data'
p223
I00
sS'form.lr_inv_power.data'
p224
F0.5
sS'form.aug_hsv_v.data'
p225
F0.06
sS'form.custom_network_snapshot.data'
p226
g171
sS'form.lr_poly_power.data'
p227
F3.0
sS'form.lr_multistep_gamma.data'
p228
F0.5
sS'form.model_name.data'
p229
g174
sS'form.lr_exp_gamma.data'
p230
F0.95
sS'form.val_interval.data'
p231
F1.0
sS'form.aug_rot.data'
p232
I0
sS'form.train_epochs.data'
p233
I30
sS'form.random_seed.data'
p234
NsS'form.aug_hsv_h.data'
p235
F0.02
ssg159
F1.0
sS'_id'
p236
S'20161125-161354-9bc8'
p237
sS'pickver_job_dataset'
p238
I1
sg142
(lp239
((idigits.status
Status
p240
g146
bF1480050834.879702
tp241
a((idigits.status
Status
p242
g149
bF1480050836.221591
tp243
a((idigits.status
Status
p244
g152
bF1480050949.49113
tp245
asS'pickver_job_model_image_classification'
p246
I1
sb.