ccopy_reg
_reconstructor
p0
(cdigits.dataset.images.classification.job
ImageClassificationDatasetJob
p1
c__builtin__
object
p2
Ntp3
Rp4
(dp5
S'username'
p6
Vdigits-testsuite
p7
sS'_notes'
p8
NsS'tasks'
p9
(lp10
g0
(cdigits.dataset.tasks.parse_folder
ParseFolderTask
p11
g2
Ntp12
Rp13
(dp14
S'node'
p15
S''
p16
sS'time_limit'
p17
NsS'percent_test'
p18
F0.0
sS'train_count'
p19
I24
sS'percent_val'
p20
F25.0
sS'val_file'
p21
S'val.txt'
p22
sS'job_num'
p23
S'4016084'
p24
sS'exception'
p25
NsS'pickver_task_parsefolder'
p26
I1
sS'test_count'
p27
I0
sS'system_type'
p28
S'slurm'
p29
sS'max_per_category'
p30
NsS'pickver_task'
p31
I1
sS's_mem'
p32
NsS'labels_file'
p33
S'labels.txt'
p34
sS'current_resources'
p35
NsS'job_id'
p36
S'20161209-111326-e50f'
p37
sS'train_file'
p38
S'train.txt'
p39
sS'traceback'
p40
NsS'label_count'
p41
I3
sS'job_dir'
p42
S'/data/zim021/digits-proj/DIGITS/tmp/tmpyzXVAu/20161209-111326-e50f'
p43
sS's_cpu_count'
p44
NsS'parents'
p45
NsS'progress'
p46
F1.0
sS'folder'
p47
V/data/zim021/digits-proj/DIGITS/tmp/tmptccBvQ
p48
sS'min_per_category'
p49
I2
sS'val_count'
p50
I6
sS'status_history'
p51
(lp52
((idigits.status
Status
p53
S'I'
p55
bF1481242406.115991
tp56
a((idigits.status
Status
p57
S'R'
p58
bF1481242406.130165
tp59
a((idigits.status
Status
p60
S'D'
p61
bF1481242408.860059
tp62
asbag0
(cdigits.dataset.tasks.create_db
CreateDbTask
p63
g2
Ntp64
Rp65
(dp66
g17
I0
sS'shuffle'
p67
I01
sS'pickver_task_createdb'
p68
I3
sS'encoding'
p69
Vpng
p70
sg23
S'4016085'
p71
sS'resize_mode'
p72
Vsquash
p73
sg28
g29
sS'entries_count'
p74
I24
sS'backend'
p75
Vlmdb
p76
sg32
I10
sS'_labels'
p77
(lp78
S'blue-to-left'
p79
aS'green-to-top'
p80
aS'red-to-right'
p81
asS'compression'
p82
S'none'
p83
sg42
g43
sg44
I8
sg45
(lp84
g13
asg46
F1.0
sg15
g16
sg33
g34
sS'input_file'
p85
g39
sS'image_dims'
p86
(I10
I10
I1
tp87
sg31
I1
sS'image_folder'
p88
Nsg36
S'20161209-111326-e50f'
p89
sg25
Nsg35
Nsg40
NsS'mean_file'
p90
S'mean.binaryproto'
p91
sS'db_name'
p92
S'train_db'
p93
sS'image_channel_order'
p94
NsS'create_db_log_file'
p95
S'create_train_db.log'
p96
sS'distribution'
p97
(dp98
V1
p99
I8
sV0
p100
I8
sV2
p101
I8
ssg51
(lp102
((idigits.status
Status
p103
g55
bF1481242406.116121
tp104
a((idigits.status
Status
p105
g58
bF1481242408.872245
tp106
a((idigits.status
Status
p107
g61
bF1481242412.38048
tp108
asbag0
(g63
g2
Ntp109
Rp110
(dp111
g17
I0
sg67
I01
sg68
I3
sg69
g70
sg23
S'4016086'
p112
sg72
g73
sg28
g29
sg74
I6
sg75
g76
sg32
I10
sg77
(lp113
S'blue-to-left'
p114
aS'green-to-top'
p115
aS'red-to-right'
p116
asg82
g83
sg42
g43
sg44
I8
sg45
(lp117
g13
asg46
F1.0
sg15
g16
sg33
g34
sg85
g22
sg86
g87
sg31
I1
sg88
Nsg36
S'20161209-111326-e50f'
p118
sg25
Nsg35
Nsg40
Nsg90
Nsg92
S'val_db'
p119
sg94
Nsg95
S'create_val_db.log'
p120
sg97
(dp121
g99
I2
sg100
I2
sg101
I2
ssg51
(lp122
((idigits.status
Status
p123
g55
bF1481242406.116195
tp124
a((idigits.status
Status
p125
g58
bF1481242408.886632
tp126
a((idigits.status
Status
p127
g61
bF1481242412.191652
tp128
asbasg33
g34
sg86
g87
sg72
g73
sS'pickver_job'
p129
I2
sS'pickver_job_dataset_image'
p130
I1
sg25
NsS'group'
p131
Vtest_group
p132
sS'pickver_job_dataset'
p133
I1
sS'persistent'
p134
I01
sS'_name'
p135
Vtest_dataset
p136
sS'form_data'
p137
(dp138
S'form.compression.data'
p139
g83
sS'form.textfile_labels_file.data'
p140
V
p141
sS'form.textfile_local_train_images.data'
p142
g141
sS'form.resize_height.data'
p143
I10
sS'form.folder_train.data'
p144
g48
sS'form.folder_val_max_per_class.data'
p145
NsS'form.folder_train_min_per_class.data'
p146
I2
sS'form.textfile_val_folder.data'
p147
g141
sS'form.slurm_mem.data'
p148
I10
sS'form.slurm_time_limit.data'
p149
I0
sS'form.backend.data'
p150
g76
sS'form.slurm_selector.data'
p151
I00
sS'form.has_test_folder.data'
p152
I00
sS'form.folder_test_max_per_class.data'
p153
NsS'form.textfile_train_images.data'
p154
g141
sS'form.folder_train_max_per_class.data'
p155
NsS'form.folder_val.data'
p156
g141
sS'form.textfile_use_test.data'
p157
I00
sS'form.folder_val_min_per_class.data'
p158
I2
sS'form.has_val_folder.data'
p159
I00
sS'form.textfile_local_labels_file.data'
p160
g141
sS'form.textfile_use_local_files.data'
p161
I00
sS'form.textfile_local_val_images.data'
p162
g141
sS'form.textfile_test_images.data'
p163
g141
sS'form.dataset_name.data'
p164
g136
sS'form.resize_width.data'
p165
I10
sS'form.textfile_train_folder.data'
p166
g141
sS'form.slurm_cpu_count.data'
p167
I8
sS'form.group_name.data'
p168
g132
sS'form.folder_test.data'
p169
g141
sS'form.folder_test_min_per_class.data'
p170
I2
sS'form.textfile_shuffle.data'
p171
I1
sS'form.folder_pct_val.data'
p172
I25
sS'form.resize_mode.data'
p173
g73
sS'form.resize_channels.data'
p174
V1
p175
sS'form.method.data'
p176
Vfolder
p177
sS'form.textfile_test_folder.data'
p178
g141
sS'form.folder_pct_test.data'
p179
I0
sS'form.encoding.data'
p180
g70
sS'form.textfile_use_val.data'
p181
I00
sS'form.textfile_val_images.data'
p182
g141
sS'form.textfile_local_test_images.data'
p183
g141
ssg46
F1.0
sS'_id'
p184
S'20161209-111326-e50f'
p185
sS'pickver_job_dataset_image_classification'
p186
I2
sg51
(lp187
((idigits.status
Status
p188
g55
bF1481242406.115441
tp189
a((idigits.status
Status
p190
g58
bF1481242406.128263
tp191
a((idigits.status
Status
p192
g61
bF1481242412.386275
tp193
asb.