ccopy_reg
_reconstructor
p0
(cdigits.dataset.generic.job
GenericDatasetJob
p1
c__builtin__
object
p2
Ntp3
Rp4
(dp5
S'_notes'
p6
NsS'username'
p7
Vdigits-testsuite
p8
sS'tasks'
p9
(lp10
g0
(cdigits.dataset.tasks.create_generic_db
CreateGenericDbTask
p11
g2
Ntp12
Rp13
(dp14
S'node'
p15
S''
p16
sS'time_limit'
p17
NsS'feature_shape'
p18
(I3
I16
I64
tp19
sS'pickver_task_create_generic_db'
p20
I1
sS'job_num'
p21
S'4016072'
p22
sS'label_shape'
p23
(I3
I16
I64
tp24
sS'job'
p25
g4
sS'system_type'
p26
S'slurm'
p27
sS'create_db_log_file'
p28
S'create_train_db_db.log'
p29
sS'dbs'
p30
(dp31
S'labels'
p32
Vtrain_db/labels
p33
sS'features'
p34
Vtrain_db/features
p35
ssS's_cpu_count'
p36
NsS'pickver_task'
p37
I1
sS'backend'
p38
Vlmdb
p39
sS's_mem'
p40
NsS'exception'
p41
NsS'current_resources'
p42
NsS'job_id'
p43
S'20161209-111302-f4d4'
p44
sS'traceback'
p45
NsS'mean_file'
p46
Vtrain_db/mean.binaryproto
p47
sS'job_dir'
p48
S'/data/zim021/digits-proj/DIGITS/tmp/tmpyzXVAu/20161209-111302-f4d4'
p49
sS'entry_count'
p50
I100
sS'parents'
p51
NsS'progress'
p52
F1.0
sS'stage'
p53
S'train_db'
p54
sS'status_history'
p55
(lp56
((idigits.status
Status
p57
S'I'
p59
bF1481242382.9354
tp60
a((idigits.status
Status
p61
S'R'
p62
bF1481242382.950817
tp63
a((idigits.status
Status
p64
S'D'
p65
bF1481242386.374874
tp66
asbag0
(g11
g2
Ntp67
Rp68
(dp69
g15
g16
sg17
Nsg18
(I3
I16
I64
tp70
sg20
I1
sg21
S'4016074'
p71
sg23
(I3
I16
I64
tp72
sg25
g4
sg26
g27
sg28
S'create_val_db_db.log'
p73
sg30
(dp74
g32
Vval_db/labels
p75
sg34
Vval_db/features
p76
ssg36
Nsg37
I1
sg38
g39
sg40
Nsg41
Nsg42
Nsg43
S'20161209-111302-f4d4'
p77
sg45
Nsg46
Vval_db/mean.binaryproto
p78
sg48
g49
sg50
I100
sg51
Nsg52
F1.0
sg53
S'val_db'
p79
sg55
(lp80
((idigits.status
Status
p81
g59
bF1481242382.935515
tp82
a((idigits.status
Status
p83
g62
bF1481242382.968382
tp84
a((idigits.status
Status
p85
g65
bF1481242386.886396
tp86
asbag0
(g11
g2
Ntp87
Rp88
(dp89
g15
g16
sg17
Nsg18
Nsg20
I1
sg21
S'4016073'
p90
sg23
Nsg25
g4
sg26
g27
sg28
S'create_test_db_db.log'
p91
sg30
(dp92
g32
Nsg34
Nssg36
Nsg37
I1
sg38
g39
sg40
Nsg41
Nsg42
Nsg43
S'20161209-111302-f4d4'
p93
sg45
Nsg46
Nsg48
g49
sg50
I0
sg51
Nsg52
F1.0
sg53
S'test_db'
p94
sg55
(lp95
((idigits.status
Status
p96
g59
bF1481242382.935562
tp97
a((idigits.status
Status
p98
g62
bF1481242382.988619
tp99
a((idigits.status
Status
p100
g65
bF1481242386.337086
tp101
asbasS'pickver_job_dataset_extension'
p102
I1
sS'batch_size'
p103
I32
sS'force_same_shape'
p104
I1
sS'form_data'
p105
(dp106
S'form.dsopts_num_threads.data'
p107
I4
sS'form.has_val_folder.data'
p108
I01
sS'form.channel_conversion.data'
p109
VRGB
p110
sS'form.dsopts_force_same_shape.data'
p111
I1
sS'form.dsopts_batch_size.data'
p112
I32
sS'form.folder_pct_val.data'
p113
I10
sS'form.slurm_selector.data'
p114
I00
sS'form.dsopts_label_encoding.data'
p115
Vnone
p116
sS'form.slurm_cpu_count.data'
p117
I8
sS'form.validation_feature_folder.data'
p118
V/data/zim021/digits-proj/DIGITS/tmp/tmp_d5s4n
p119
sS'form.feature_folder.data'
p120
V/data/zim021/digits-proj/DIGITS/tmp/tmp_d5s4n
p121
sS'form.dsopts_backend.data'
p122
g39
sS'form.group_name.data'
p123
Vtest_group
p124
sS'form.slurm_time_limit.data'
p125
I0
sS'form.slurm_mem.data'
p126
I10
sS'form.dsopts_feature_encoding.data'
p127
Vpng
p128
sS'form.validation_label_folder.data'
p129
V/data/zim021/digits-proj/DIGITS/tmp/tmp_d5s4n
p130
sS'form.dataset_name.data'
p131
Vtest_dataset
p132
sS'form.label_folder.data'
p133
V/data/zim021/digits-proj/DIGITS/tmp/tmp_d5s4n
p134
ssS'pickver_job'
p135
I2
sg38
g39
sS'num_threads'
p136
I4
sg41
NsS'group'
p137
g124
sS'feature_encoding'
p138
g128
sS'persistent'
p139
I01
sS'_name'
p140
g132
sS'extension_userdata'
p141
(dp142
S'validation_label_folder'
p143
g130
sS'folder_pct_val'
p144
I10
sS'has_val_folder'
p145
I01
sS'label_folder'
p146
g134
sS'feature_folder'
p147
g121
sS'validation_feature_folder'
p148
g119
sS'seed'
p149
I331
sS'channel_conversion'
p150
g110
ssS'extension_id'
p151
Vimage-processing
p152
sS'label_encoding'
p153
g116
sg52
F1.0
sS'_id'
p154
S'20161209-111302-f4d4'
p155
sS'pickver_job_dataset'
p156
I1
sg55
(lp157
((idigits.status
Status
p158
g59
bF1481242382.934835
tp159
a((idigits.status
Status
p160
g62
bF1481242382.944407
tp161
a((idigits.status
Status
p162
g65
bF1481242386.915286
tp163
asb.