ccopy_reg
_reconstructor
p0
(cdigits.dataset.images.classification.job
ImageClassificationDatasetJob
p1
c__builtin__
object
p2
Ntp3
Rp4
(dp5
S'username'
p6
Vzim
p7
sS'_notes'
p8
NsS'tasks'
p9
(lp10
g0
(cdigits.dataset.tasks.parse_folder
ParseFolderTask
p11
g2
Ntp12
Rp13
(dp14
S'train_count'
p15
I45002
sS'percent_test'
p16
F0.0
sS'labels_file'
p17
S'labels.txt'
p18
sS'percent_val'
p19
F25.0
sS'val_file'
p20
S'val.txt'
p21
sS'pickver_task_parsefolder'
p22
I1
sS'test_count'
p23
I0
sS'max_per_category'
p24
NsS'pickver_task'
p25
I1
sS'exception'
p26
NsS'current_resources'
p27
NsS'job_id'
p28
S'20161125-161231-08c0'
p29
sS'train_file'
p30
S'train.txt'
p31
sS'traceback'
p32
NsS'label_count'
p33
I10
sS'job_dir'
p34
S'/data/zim021/digits-proj/DIGITS/digits/jobs/20161125-161231-08c0'
p35
sS'parents'
p36
NsS'progress'
p37
F1.0
sS'folder'
p38
V/home/zim021/mnist/train
p39
sS'min_per_category'
p40
I2
sS'val_count'
p41
I14998
sS'status_history'
p42
(lp43
((idigits.status
Status
p44
S'I'
p46
bF1480050751.075185
tp47
a((idigits.status
Status
p48
S'R'
p49
bF1480050752.443634
tp50
a((idigits.status
Status
p51
S'D'
p52
bF1480050760.053002
tp53
asbag0
(cdigits.dataset.tasks.create_db
CreateDbTask
p54
g2
Ntp55
Rp56
(dp57
g17
g18
sg32
NsS'shuffle'
p58
I01
sS'pickver_task_createdb'
p59
I3
sS'encoding'
p60
Vpng
p61
sS'image_dims'
p62
(I28
I28
I3
tp63
sS'resize_mode'
p64
Vsquash
p65
sS'db_name'
p66
S'train_db'
p67
sS'compression'
p68
S'none'
p69
sS'create_db_log_file'
p70
S'create_train_db.log'
p71
sS'entries_count'
p72
I45002
sg25
I1
sS'distribution'
p73
(dp74
V1
p75
I5057
sV0
p76
I4442
sV3
p77
I4598
sV2
p78
I4469
sV5
p79
I4066
sV4
p80
I4382
sV7
p81
I4699
sV6
p82
I4439
sV9
p83
I4462
sV8
p84
I4388
ssS'image_folder'
p85
NsS'backend'
p86
Vlmdb
p87
sS'_labels'
p88
(lp89
S'0'
p90
aS'1'
p91
aS'2'
p92
aS'3'
p93
aS'4'
p94
aS'5'
p95
aS'6'
p96
aS'7'
p97
aS'8'
p98
aS'9'
p99
asg26
Nsg27
Nsg28
S'20161125-161231-08c0'
p100
sS'input_file'
p101
g31
sS'mean_file'
p102
S'mean.binaryproto'
p103
sg34
g35
sg36
(lp104
g13
asS'image_channel_order'
p105
S'BGR'
p106
sg37
F1.0
sg42
(lp107
((idigits.status
Status
p108
g46
bF1480050751.075303
tp109
a((idigits.status
Status
p110
g49
bF1480050760.526253
tp111
a((idigits.status
Status
p112
g52
bF1480050805.864297
tp113
asbag0
(g54
g2
Ntp114
Rp115
(dp116
g17
g18
sg32
Nsg58
I01
sg59
I3
sg60
g61
sg62
g63
sg64
g65
sg66
S'val_db'
p117
sg68
g69
sg70
S'create_val_db.log'
p118
sg72
I14998
sg25
I1
sg73
(dp119
g75
I1685
sg76
I1481
sg77
I1533
sg78
I1489
sg79
I1355
sg80
I1460
sg81
I1566
sg82
I1479
sg83
I1487
sg84
I1463
ssg85
Nsg86
g87
sg88
(lp120
g90
ag91
ag92
ag93
ag94
ag95
ag96
ag97
ag98
ag99
asg26
Nsg27
Nsg28
S'20161125-161231-08c0'
p121
sg101
g21
sg102
Nsg34
g35
sg36
(lp122
g13
asg105
g106
sg37
F1.0
sg42
(lp123
((idigits.status
Status
p124
g46
bF1480050751.075369
tp125
a((idigits.status
Status
p126
g49
bF1480050760.53837
tp127
a((idigits.status
Status
p128
g52
bF1480050777.225173
tp129
asbasg17
g18
sg62
g63
sg64
g65
sS'pickver_job'
p130
I2
sS'pickver_job_dataset_image'
p131
I1
sg26
NsS'group'
p132
V
p133
sS'pickver_job_dataset_image_classification'
p134
I2
sS'persistent'
p135
I01
sS'_name'
p136
Vmnist training
p137
sS'form_data'
p138
(dp139
S'form.textfile_local_train_images.data'
p140
g133
sS'form.resize_height.data'
p141
I28
sS'form.folder_train.data'
p142
g39
sS'form.folder_val_max_per_class.data'
p143
NsS'form.folder_train_min_per_class.data'
p144
I2
sS'form.textfile_val_folder.data'
p145
g133
sS'form.backend.data'
p146
g87
sS'form.has_test_folder.data'
p147
I00
sS'form.method.data'
p148
Vfolder
p149
sS'form.encoding.data'
p150
g61
sS'form.folder_test_max_per_class.data'
p151
NsS'form.compression.data'
p152
g69
sS'form.folder_val.data'
p153
g133
sS'form.textfile_use_test.data'
p154
I00
sS'form.folder_val_min_per_class.data'
p155
I2
sS'form.folder_pct_test.data'
p156
I0
sS'form.has_val_folder.data'
p157
I00
sS'form.dataset_name.data'
p158
g137
sS'form.textfile_shuffle.data'
p159
I1
sS'form.textfile_local_val_images.data'
p160
g133
sS'form.textfile_train_folder.data'
p161
g133
sS'form.group_name.data'
p162
g133
sS'form.folder_train_max_per_class.data'
p163
NsS'form.folder_test.data'
p164
g133
sS'form.folder_test_min_per_class.data'
p165
I2
sS'form.folder_pct_val.data'
p166
I25
sS'form.resize_mode.data'
p167
g65
sS'form.resize_channels.data'
p168
V3
p169
sS'form.textfile_test_folder.data'
p170
g133
sS'form.textfile_local_labels_file.data'
p171
g133
sS'form.textfile_use_local_files.data'
p172
I00
sS'form.resize_width.data'
p173
I28
sS'form.textfile_use_val.data'
p174
I01
sS'form.textfile_local_test_images.data'
p175
g133
ssg37
F1.0
sS'_id'
p176
S'20161125-161231-08c0'
p177
sS'pickver_job_dataset'
p178
I1
sg42
(lp179
((idigits.status
Status
p180
g46
bF1480050751.07441
tp181
a((idigits.status
Status
p182
g49
bF1480050752.232259
tp183
a((idigits.status
Status
p184
g52
bF1480050806.199424
tp185
asb.