ccopy_reg
_reconstructor
p0
(cdigits.model.images.classification.job
ImageClassificationModelJob
p1
c__builtin__
object
p2
Ntp3
Rp4
(dp5
S'username'
p6
Vqa
p7
sS'_notes'
p8
NsS'tasks'
p9
(lp10
g0
(cdigits.model.tasks.caffe_train
CaffeTrainTask
p11
g2
Ntp12
Rp13
(dp14
S'node'
p15
S''
p16
sS'traceback'
p17
NsS'shuffle'
p18
I01
sS'snapshot_interval'
p19
F1.0
sS'job_num'
p20
S'3888281'
p21
sS'train_outputs'
p22
ccollections
OrderedDict
p23
((lp24
(lp25
S'epoch'
p26
ag0
(cdigits.model.tasks.train
NetworkOutput
p27
c__builtin__
tuple
p28
(S'Epoch'
p29
(lp30
I0
aF0.11221590909090909
aF0.22443181818181818
aF0.3366477272727273
aF0.44886363636363635
aF0.5610795454545454
aF0.6732954545454546
atp31
tp32
Rp33
aa(lp34
S'loss'
p35
ag0
(g27
g28
(S'SoftmaxWithLoss'
p36
(lp37
F2.44078
aF0.27653
aF0.202263
aF0.21105
aF0.202397
aF0.0436732
aF0.114878
atp38
tp39
Rp40
aa(lp41
S'learning_rate'
p42
ag0
(g27
g28
(S'LearningRate'
p43
(lp44
F0.01
aF0.01
aF0.01
aF0.01
aF0.01
aF0.01
aF0.01
atp45
tp46
Rp47
aatp48
Rp49
sS'val_outputs'
p50
g23
((lp51
(lp52
g26
ag0
(g27
g28
(g29
(lp53
I0
atp54
tp55
Rp56
aa(lp57
S'accuracy'
p58
ag0
(g27
g28
(S'Accuracy'
p59
(lp60
F0.100546
atp61
tp62
Rp63
aa(lp64
S'loss'
p65
ag0
(g27
g28
(S'SoftmaxWithLoss'
p66
(lp67
F2.48745
atp68
tp69
Rp70
aatp71
Rp72
sS'loaded_snapshot_epoch'
p73
NsS'pretrained_model'
p74
NsS'deploy_file'
p75
S'deploy.prototxt'
p76
sS'current_iteration'
p77
I474
sS'gpu_count'
p78
I1
sS'rms_decay'
p79
F0.99
sS'train_epochs'
p80
I30
sS'network'
p81
ccaffe_pb2
NetParameter
p82
(tRp83
(dp84
S'serialized'
p85
S'\n\x05LeNet\xa2\x06-\n\ntrain-data\x12\x04Data"\x04data"\x05labelB\x07"\x05train\xda\x06\x02 @\xa2\x06)\n\x08val-data\x12\x04Data"\x04data"\x05labelB\x05"\x03val\xda\x06\x02  \xa2\x06$\n\x05scale\x12\x05Power\x1a\x04data"\x06scaled\xd2\x07\x05\x15\xcd\xccL<\xa2\x06P\n\x05conv1\x12\x0bConvolution\x1a\x06scaled"\x05conv12\x05\x1d\x00\x00\x80?2\x05\x1d\x00\x00\x00@\xd2\x06\x1c\x08\x14 \x050\x01:\x08\n\x06xavierB\n\n\x08constant\xa2\x06\'\n\x05pool1\x12\x07Pooling\x1a\x05conv1"\x05pool1\xca\x07\x06\x08\x00\x10\x02\x18\x02\xa2\x06O\n\x05conv2\x12\x0bConvolution\x1a\x05pool1"\x05conv22\x05\x1d\x00\x00\x80?2\x05\x1d\x00\x00\x00@\xd2\x06\x1c\x082 \x050\x01:\x08\n\x06xavierB\n\n\x08constant\xa2\x06\'\n\x05pool2\x12\x07Pooling\x1a\x05conv2"\x05pool2\xca\x07\x06\x08\x00\x10\x02\x18\x02\xa2\x06I\n\x03ip1\x12\x0cInnerProduct\x1a\x05pool2"\x03ip12\x05\x1d\x00\x00\x80?2\x05\x1d\x00\x00\x00@\xaa\x07\x19\x08\xf4\x03\x1a\x08\n\x06xavier"\n\n\x08constant\xa2\x06\x17\n\x05relu1\x12\x04ReLU\x1a\x03ip1"\x03ip1\xa2\x06D\n\x03ip2\x12\x0cInnerProduct\x1a\x03ip1"\x03ip22\x05\x1d\x00\x00\x80?2\x05\x1d\x00\x00\x00@\xaa\x07\x16\x1a\x08\n\x06xavier"\n\n\x08constant\xa2\x061\n\x08accuracy\x12\x08Accuracy\x1a\x03ip2\x1a\x05label"\x08accuracyB\x05"\x03val\xa2\x063\n\x04loss\x12\x0fSoftmaxWithLoss\x1a\x03ip2\x1a\x05label"\x04lossJ\x08"\x06deploy\xa2\x06*\n\x07softmax\x12\x07Softmax\x1a\x03ip2"\x07softmaxB\x08"\x06deploy'
p86
sbsS'use_mean'
p87
Vimage
p88
sS'model_file'
p89
S'original.prototxt'
p90
sS'job_dir'
p91
S'/data/zim021/digits-proj/DIGITS/digits/jobs/20161129-091821-4902'
p92
sS'receiving_val_output'
p93
I00
sS'parents'
p94
NsS'progress'
p95
F0.02244318181818182
sS'lr_policy'
p96
(dp97
S'policy'
p98
Vstep
p99
sS'stepsize'
p100
F33.0
sS'gamma'
p101
F0.1
ssS'crop_size'
p102
NsS'receiving_train_output'
p103
I00
sS'val_interval'
p104
F1.0
sS'current_epoch'
p105
F0.6732954545454546
sS'random_seed'
p106
NsS'saving_snapshot'
p107
I00
sS'pickver_task_caffe_train'
p108
I5
sg42
F0.01
sS'loaded_snapshot_file'
p109
NsS'batch_size'
p110
NsS'digits_version'
p111
S'5.1-dev'
p112
sS'job'
p113
g4
sS'pickver_task_train'
p114
I2
sS'current_resources'
p115
NsS'pickver_task'
p116
I1
sS'job_id'
p117
S'20161129-091821-4902'
p118
sS'exception'
p119
NsS'data_aug'
p120
(dp121
S'hsv_h'
p122
F0.02
sS'hsv_use'
p123
I00
sS'flip'
p124
Vnone
p125
sS'quad_rot'
p126
Vnone
p127
sS'scale'
p128
F0.0
sS'noise'
p129
F0.0
sS'hsv_s'
p130
F0.04
sS'rot'
p131
I0
sS'hsv_v'
p132
F0.06
ssS'selected_gpus'
p133
NsS'caffe_flavor'
p134
S'BVLC'
p135
sS'snapshot_prefix'
p136
S'snapshot'
p137
sS'solver'
p138
ccaffe_pb2
SolverParameter
p139
(tRp140
(dp141
g85
S'\x18\xd5\x03 \xc0\x05-\n\xd7#<0O8\x80\xa5\x01B\x04stepM\xcd\xcc\xcc=]fff?e\x17\xb7\xd18h\xba6p\xc0\x05z\x08snapshot\x88\x01\x01\xc2\x01\x12train_val.prototxt\xf0\x01\x00'
p142
sbsS'framework_id'
p143
S'caffe'
p144
sS'status_history'
p145
(lp146
((idigits.status
Status
p147
S'I'
p149
bF1480371501.955914
tp150
a((idigits.status
Status
p151
S'R'
p152
bF1480371503.39027
tp153
a((idigits.status
Status
p154
S'A'
p155
bF1480371507.781454
tp156
asS'last_train_update'
p157
F1480371505.7607
sS'train_val_file'
p158
S'train_val.prototxt'
p159
sS'image_mean'
p160
NsS'batch_accumulation'
p161
NsS'caffe_version'
p162
S'1.0.0-rc3'
p163
sS'log_file'
p164
S'caffe_output.log'
p165
sS'solver_file'
p166
S'solver.prototxt'
p167
sS'solver_type'
p168
VSGD
p169
sbasS'pickver_job'
p170
I2
sS'dataset_id'
p171
S'20161125-161231-08c0'
p172
sS'pickver_job_model_image'
p173
I1
sg119
NsS'group'
p174
V
p175
sS'persistent'
p176
I01
sS'_name'
p177
Vlenet
p178
sS'form_data'
p179
(dp180
S'form.standard_networks.data'
p181
Vlenet
p182
sS'form.learning_rate.data'
p183
(lp184
F0.01
asS'form.model_name.data'
p185
g178
sS'form.aug_flip.data'
p186
g125
sS'form.select_gpus.data'
p187
(lp188
sS'form.framework.data'
p189
Vcaffe
p190
sS'form.dataset.data'
p191
V20161125-161231-08c0
p192
sS'form.python_layer_from_client.data'
p193
I00
sS'form.lr_multistep_values.data'
p194
V50,85
p195
sS'form.aug_hsv_s.data'
p196
F0.04
sS'form.lr_sigmoid_gamma.data'
p197
F0.1
sS'form.lr_policy.data'
p198
g99
sS'form.random_seed.data'
p199
NsS'form.previous_networks.data'
p200
VNone
p201
sS'form.aug_quad_rot.data'
p202
g127
sS'form.rms_decay.data'
p203
F0.99
sS'form.method.data'
p204
Vstandard
p205
sS'form.lr_sigmoid_step.data'
p206
F50.0
sS'form.crop_size.data'
p207
NsS'form.select_gpu_count.data'
p208
I1
sS'form.python_layer_server_file.data'
p209
g175
sS'form.pretrained_networks.data'
p210
VNone
p211
sS'form.solver_type.data'
p212
g169
sS'form.aug_noise.data'
p213
F0.0
sS'form.select_gpus_list.data'
p214
g175
sS'form.shuffle.data'
p215
I01
sS'form.aug_scale.data'
p216
F0.0
sS'form.batch_accumulation.data'
p217
NsS'form.custom_network.data'
p218
g175
sS'form.group_name.data'
p219
g175
sS'form.val_interval.data'
p220
F1.0
sS'form.lr_inv_gamma.data'
p221
F0.1
sS'form.lr_poly_power.data'
p222
F3.0
sS'form.snapshot_interval.data'
p223
F1.0
sS'form.lr_step_size.data'
p224
F33.0
sS'form.aug_hsv_use.data'
p225
I00
sS'form.lr_inv_power.data'
p226
F0.5
sS'form.aug_hsv_v.data'
p227
F0.06
sS'form.custom_network_snapshot.data'
p228
g175
sS'form.lr_step_gamma.data'
p229
F0.1
sS'form.lr_multistep_gamma.data'
p230
F0.5
sS'form.select_gpu.data'
p231
Vnext
p232
sS'form.lr_exp_gamma.data'
p233
F0.95
sS'form.use_mean.data'
p234
g88
sS'form.aug_rot.data'
p235
I0
sS'form.train_epochs.data'
p236
I30
sS'form.batch_size.data'
p237
(lp238
NasS'form.aug_hsv_h.data'
p239
F0.02
ssg95
I0
sS'_id'
p240
S'20161129-091821-4902'
p241
sS'pickver_job_dataset'
p242
I1
sg145
(lp243
((idigits.status
Status
p244
g149
bF1480371501.942218
tp245
a((idigits.status
Status
p246
g152
bF1480371503.195741
tp247
a((idigits.status
Status
p248
g155
bF1480371507.703484
tp249
asS'pickver_job_model_image_classification'
p250
I1
sb.