ccopy_reg
_reconstructor
p0
(cdigits.dataset.generic.job
GenericDatasetJob
p1
c__builtin__
object
p2
Ntp3
Rp4
(dp5
S'_notes'
p6
NsS'username'
p7
Vdigits-testsuite
p8
sS'tasks'
p9
(lp10
g0
(cdigits.dataset.tasks.create_generic_db
CreateGenericDbTask
p11
g2
Ntp12
Rp13
(dp14
S'node'
p15
S''
p16
sS'time_limit'
p17
NsS'feature_shape'
p18
(I1
I32
I32
tp19
sS'pickver_task_create_generic_db'
p20
I1
sS'job_num'
p21
g16
sS'label_shape'
p22
(I1
I32
I32
tp23
sS'job'
p24
g4
sS'system_type'
p25
S'int'
p26
sS'create_db_log_file'
p27
S'create_train_db_db.log'
p28
sS'dbs'
p29
(dp30
S'labels'
p31
Vtrain_db/labels
p32
sS'features'
p33
Vtrain_db/features
p34
ssS's_cpu_count'
p35
NsS'pickver_task'
p36
I1
sS'backend'
p37
Vlmdb
p38
sS's_mem'
p39
NsS'exception'
p40
NsS'current_resources'
p41
NsS'job_id'
p42
S'20161209-101754-9e3c'
p43
sS'traceback'
p44
NsS'mean_file'
p45
Vtrain_db/mean.binaryproto
p46
sS'job_dir'
p47
S'/data/zim021/digits-proj/DIGITS/tmpGxylHW/20161209-101754-9e3c'
p48
sS'entry_count'
p49
I90
sS'parents'
p50
NsS'progress'
p51
F1.0
sS'stage'
p52
S'train_db'
p53
sS'status_history'
p54
(lp55
((idigits.status
Status
p56
S'I'
p58
bF1481239074.049206
tp59
a((idigits.status
Status
p60
S'R'
p61
bF1481239074.085913
tp62
a((idigits.status
Status
p63
S'D'
p64
bF1481239078.110436
tp65
asbag0
(g11
g2
Ntp66
Rp67
(dp68
g15
g16
sg17
Nsg18
(I1
I32
I32
tp69
sg20
I1
sg21
g16
sg22
(I1
I32
I32
tp70
sg24
g4
sg25
g26
sg27
S'create_val_db_db.log'
p71
sg29
(dp72
g31
Vval_db/labels
p73
sg33
Vval_db/features
p74
ssg35
Nsg36
I1
sg37
g38
sg39
Nsg40
Nsg41
Nsg42
S'20161209-101754-9e3c'
p75
sg44
Nsg45
Vval_db/mean.binaryproto
p76
sg47
g48
sg49
I10
sg50
Nsg51
F1.0
sg52
S'val_db'
p77
sg54
(lp78
((idigits.status
Status
p79
g58
bF1481239074.049294
tp80
a((idigits.status
Status
p81
g61
bF1481239074.1025
tp82
a((idigits.status
Status
p83
g64
bF1481239077.93871
tp84
asbag0
(g11
g2
Ntp85
Rp86
(dp87
g15
g16
sg17
Nsg18
Nsg20
I1
sg21
g16
sg22
Nsg24
g4
sg25
g26
sg27
S'create_test_db_db.log'
p88
sg29
(dp89
g31
Nsg33
Nssg35
Nsg36
I1
sg37
g38
sg39
Nsg40
Nsg41
Nsg42
S'20161209-101754-9e3c'
p90
sg44
Nsg45
Nsg47
g48
sg49
I0
sg50
Nsg51
F1.0
sg52
S'test_db'
p91
sg54
(lp92
((idigits.status
Status
p93
g58
bF1481239074.049348
tp94
a((idigits.status
Status
p95
S'W'
p96
bF1481239074.07667
tp97
a((idigits.status
Status
p98
g61
bF1481239077.954365
tp99
a((idigits.status
Status
p100
g64
bF1481239081.32326
tp101
asbasS'pickver_job_dataset_extension'
p102
I1
sS'batch_size'
p103
I32
sS'force_same_shape'
p104
I1
sS'form_data'
p105
(dp106
S'form.dsopts_num_threads.data'
p107
I4
sS'form.has_val_folder.data'
p108
I00
sS'form.channel_conversion.data'
p109
VL
p110
sS'form.dsopts_force_same_shape.data'
p111
I1
sS'form.dsopts_batch_size.data'
p112
I32
sS'form.folder_pct_val.data'
p113
I10
sS'form.slurm_selector.data'
p114
I00
sS'form.dsopts_label_encoding.data'
p115
Vnone
p116
sS'form.slurm_cpu_count.data'
p117
I8
sS'form.validation_feature_folder.data'
p118
V
p119
sS'form.feature_folder.data'
p120
V/tmp/zim021.1042/tmpe30ZJh
p121
sS'form.dsopts_backend.data'
p122
g38
sS'form.group_name.data'
p123
Vtest_group
p124
sS'form.slurm_time_limit.data'
p125
I0
sS'form.slurm_mem.data'
p126
I10
sS'form.dsopts_feature_encoding.data'
p127
Vpng
p128
sS'form.validation_label_folder.data'
p129
g119
sS'form.dataset_name.data'
p130
Vtest_dataset
p131
sS'form.label_folder.data'
p132
V/tmp/zim021.1042/tmpe30ZJh
p133
ssS'pickver_job'
p134
I2
sg37
g38
sS'num_threads'
p135
I4
sg40
NsS'group'
p136
g124
sS'feature_encoding'
p137
g128
sS'persistent'
p138
I01
sS'_name'
p139
g131
sS'extension_userdata'
p140
(dp141
S'validation_label_folder'
p142
g119
sS'folder_pct_val'
p143
I10
sS'has_val_folder'
p144
I00
sS'label_folder'
p145
g133
sS'feature_folder'
p146
g121
sS'validation_feature_folder'
p147
g119
sS'seed'
p148
I890
sS'channel_conversion'
p149
g110
ssS'extension_id'
p150
Vimage-processing
p151
sS'label_encoding'
p152
g116
sg51
F1.0
sS'_id'
p153
S'20161209-101754-9e3c'
p154
sS'pickver_job_dataset'
p155
I1
sg54
(lp156
((idigits.status
Status
p157
g58
bF1481239074.048695
tp158
a((idigits.status
Status
p159
g61
bF1481239074.057154
tp160
a((idigits.status
Status
p161
g64
bF1481239081.341256
tp162
asb.