ccopy_reg
_reconstructor
p0
(cdigits.dataset.generic.job
GenericDatasetJob
p1
c__builtin__
object
p2
Ntp3
Rp4
(dp5
S'_notes'
p6
NsS'username'
p7
Vdigits-testsuite
p8
sS'tasks'
p9
(lp10
g0
(cdigits.dataset.tasks.create_generic_db
CreateGenericDbTask
p11
g2
Ntp12
Rp13
(dp14
S'node'
p15
S''
p16
sS'time_limit'
p17
NsS'feature_shape'
p18
NsS'pickver_task_create_generic_db'
p19
I1
sS'job_num'
p20
g16
sS'label_shape'
p21
NsS'job'
p22
g4
sS'system_type'
p23
S'int'
p24
sS'create_db_log_file'
p25
S'create_train_db_db.log'
p26
sS'dbs'
p27
(dp28
S'labels'
p29
NsS'features'
p30
NssS's_cpu_count'
p31
NsS'pickver_task'
p32
I1
sS'backend'
p33
Vlmdb
p34
sS's_mem'
p35
NsS'exception'
p36
NsS'current_resources'
p37
(dp38
S'create_db_task_pool'
p39
(lp40
(I46913982640592
I1
tp41
assS'job_id'
p42
S'20161209-101801-e09e'
p43
sS'traceback'
p44
NsS'mean_file'
p45
NsS'job_dir'
p46
S'/data/zim021/digits-proj/DIGITS/tmpGxylHW/20161209-101801-e09e'
p47
sS'entry_count'
p48
I0
sS'parents'
p49
NsS'progress'
p50
I0
sS'stage'
p51
S'train_db'
p52
sS'status_history'
p53
(lp54
((idigits.status
Status
p55
S'I'
p57
bF1481239081.995163
tp58
a((idigits.status
Status
p59
S'R'
p60
bF1481239082.011655
tp61
asbag0
(g11
g2
Ntp62
Rp63
(dp64
g15
g16
sg17
Nsg18
Nsg19
I1
sg20
g16
sg21
Nsg22
g4
sg23
g24
sg25
S'create_val_db_db.log'
p65
sg27
(dp66
g29
Nsg30
Nssg31
Nsg32
I1
sg33
g34
sg35
Nsg36
Nsg37
(dp67
g39
(lp68
(I46913982640592
I1
tp69
assg42
S'20161209-101801-e09e'
p70
sg44
Nsg45
Nsg46
g47
sg48
I0
sg49
Nsg50
I0
sg51
S'val_db'
p71
sg53
(lp72
((idigits.status
Status
p73
g57
bF1481239081.995279
tp74
asbag0
(g11
g2
Ntp75
Rp76
(dp77
g15
g16
sg17
Nsg18
Nsg19
I1
sg20
g16
sg21
Nsg22
g4
sg48
I0
sg23
g24
sg25
S'create_test_db_db.log'
p78
sg27
(dp79
g29
Nsg30
Nssg32
I1
sg33
g34
sg35
Nsg36
Nsg42
S'20161209-101801-e09e'
p80
sg44
Nsg45
Nsg46
g47
sg31
Nsg49
Nsg50
I0
sg51
S'test_db'
p81
sg53
(lp82
((idigits.status
Status
p83
g57
bF1481239081.995327
tp84
a((idigits.status
Status
p85
S'W'
p86
bF1481239082.005699
tp87
asbasS'pickver_job_dataset_extension'
p88
I1
sS'batch_size'
p89
I32
sS'force_same_shape'
p90
I1
sS'form_data'
p91
(dp92
S'form.dsopts_num_threads.data'
p93
I4
sS'form.has_val_folder.data'
p94
I01
sS'form.channel_conversion.data'
p95
VRGB
p96
sS'form.dsopts_force_same_shape.data'
p97
I1
sS'form.dsopts_batch_size.data'
p98
I32
sS'form.folder_pct_val.data'
p99
I10
sS'form.slurm_selector.data'
p100
I00
sS'form.dsopts_label_encoding.data'
p101
Vnone
p102
sS'form.slurm_cpu_count.data'
p103
I8
sS'form.validation_feature_folder.data'
p104
V/tmp/zim021.1042/tmpekIEVx
p105
sS'form.feature_folder.data'
p106
V/tmp/zim021.1042/tmpekIEVx
p107
sS'form.dsopts_backend.data'
p108
g34
sS'form.group_name.data'
p109
Vtest_group
p110
sS'form.slurm_time_limit.data'
p111
I0
sS'form.slurm_mem.data'
p112
I10
sS'form.dsopts_feature_encoding.data'
p113
Vpng
p114
sS'form.validation_label_folder.data'
p115
V/tmp/zim021.1042/tmpekIEVx
p116
sS'form.dataset_name.data'
p117
Vtest_dataset
p118
sS'form.label_folder.data'
p119
V/tmp/zim021.1042/tmpekIEVx
p120
ssS'pickver_job'
p121
I2
sg33
g34
sS'num_threads'
p122
I4
sg36
NsS'group'
p123
g110
sS'feature_encoding'
p124
g114
sS'persistent'
p125
I01
sS'_name'
p126
g118
sS'extension_userdata'
p127
(dp128
S'validation_label_folder'
p129
g116
sS'folder_pct_val'
p130
I10
sS'has_val_folder'
p131
I01
sS'label_folder'
p132
g120
sS'feature_folder'
p133
g107
sS'validation_feature_folder'
p134
g105
sS'seed'
p135
I48
sS'channel_conversion'
p136
g96
ssS'extension_id'
p137
Vimage-processing
p138
sS'label_encoding'
p139
g102
sg50
I0
sS'_id'
p140
S'20161209-101801-e09e'
p141
sS'pickver_job_dataset'
p142
I1
sg53
(lp143
((idigits.status
Status
p144
g57
bF1481239081.994617
tp145
a((idigits.status
Status
p146
g60
bF1481239082.00423
tp147
asb.