ccopy_reg
_reconstructor
p0
(cdigits.dataset.images.classification.job
ImageClassificationDatasetJob
p1
c__builtin__
object
p2
Ntp3
Rp4
(dp5
S'username'
p6
Vdigits-testsuite
p7
sS'_notes'
p8
NsS'tasks'
p9
(lp10
g0
(cdigits.dataset.tasks.parse_folder
ParseFolderTask
p11
g2
Ntp12
Rp13
(dp14
S'node'
p15
S''
p16
sS'time_limit'
p17
NsS'percent_test'
p18
F0.0
sS'train_count'
p19
NsS'percent_val'
p20
F25.0
sS'val_file'
p21
S'val.txt'
p22
sS'job_num'
p23
g16
sS'exception'
p24
NsS'pickver_task_parsefolder'
p25
I1
sS'test_count'
p26
NsS'system_type'
p27
S'slurm'
p28
sS'max_per_category'
p29
NsS'pickver_task'
p30
I1
sS's_mem'
p31
NsS'labels_file'
p32
S'labels.txt'
p33
sS'current_resources'
p34
(dp35
S'parse_folder_task_pool'
p36
(lp37
(I46913982640400
I1
tp38
assS'job_id'
p39
S'20161209-101835-54a7'
p40
sS'train_file'
p41
S'train.txt'
p42
sS'traceback'
p43
NsS'label_count'
p44
NsS'job_dir'
p45
S'/data/zim021/digits-proj/DIGITS/tmpZnGuXP/20161209-101835-54a7'
p46
sS's_cpu_count'
p47
NsS'parents'
p48
NsS'progress'
p49
I0
sS'folder'
p50
V/tmp/zim021.1042/tmpvddyGb
p51
sS'min_per_category'
p52
I2
sS'val_count'
p53
NsS'status_history'
p54
(lp55
((idigits.status
Status
p56
S'I'
p58
bF1481239115.02839
tp59
a((idigits.status
Status
p60
S'R'
p61
bF1481239115.041929
tp62
asbag0
(cdigits.dataset.tasks.create_db
CreateDbTask
p63
g2
Ntp64
Rp65
(dp66
g17
I0
sS'shuffle'
p67
I01
sS'pickver_task_createdb'
p68
I3
sS'encoding'
p69
Vpng
p70
sg23
g16
sS'resize_mode'
p71
Vsquash
p72
sg27
g28
sS'entries_count'
p73
NsS'backend'
p74
Vlmdb
p75
sg31
I10
sS'compression'
p76
S'none'
p77
sg45
g46
sg48
(lp78
g13
asg49
I0
sg15
g16
sg32
g33
sS'input_file'
p79
g42
sS'image_dims'
p80
(I10
I10
I3
tp81
sS'db_name'
p82
S'train_db'
p83
sg30
I1
sS'image_folder'
p84
Nsg39
S'20161209-101835-54a7'
p85
sg24
Nsg43
NsS'mean_file'
p86
S'mean.binaryproto'
p87
sg47
I8
sS'image_channel_order'
p88
S'BGR'
p89
sS'create_db_log_file'
p90
S'create_train_db.log'
p91
sS'distribution'
p92
Nsg54
(lp93
((idigits.status
Status
p94
g58
bF1481239115.028527
tp95
asbag0
(g63
g2
Ntp96
Rp97
(dp98
g17
I0
sg67
I01
sg68
I3
sg69
g70
sg23
g16
sg71
g72
sg27
g28
sg73
Nsg74
g75
sg31
I10
sg76
g77
sg45
g46
sg48
(lp99
g13
asg49
I0
sg15
g16
sg32
g33
sg79
g22
sg80
g81
sg82
S'val_db'
p100
sg30
I1
sg84
Nsg39
S'20161209-101835-54a7'
p101
sg24
Nsg43
Nsg86
Nsg47
I8
sg88
g89
sg90
S'create_val_db.log'
p102
sg92
Nsg54
(lp103
((idigits.status
Status
p104
g58
bF1481239115.028598
tp105
asbasg32
g33
sg80
g81
sg71
g72
sS'pickver_job'
p106
I2
sS'pickver_job_dataset_image'
p107
I1
sg24
NsS'group'
p108
Vtest_group
p109
sS'pickver_job_dataset'
p110
I1
sS'persistent'
p111
I01
sS'_name'
p112
Vtest_dataset
p113
sS'form_data'
p114
(dp115
S'form.compression.data'
p116
g77
sS'form.textfile_labels_file.data'
p117
V
p118
sS'form.textfile_local_train_images.data'
p119
g118
sS'form.resize_height.data'
p120
I10
sS'form.folder_train.data'
p121
g51
sS'form.folder_val_max_per_class.data'
p122
NsS'form.folder_train_min_per_class.data'
p123
I2
sS'form.textfile_val_folder.data'
p124
g118
sS'form.slurm_mem.data'
p125
I10
sS'form.slurm_time_limit.data'
p126
I0
sS'form.backend.data'
p127
g75
sS'form.slurm_selector.data'
p128
I00
sS'form.has_test_folder.data'
p129
I00
sS'form.folder_test_max_per_class.data'
p130
NsS'form.textfile_train_images.data'
p131
g118
sS'form.folder_train_max_per_class.data'
p132
NsS'form.folder_val.data'
p133
g118
sS'form.textfile_use_test.data'
p134
I00
sS'form.folder_val_min_per_class.data'
p135
I2
sS'form.has_val_folder.data'
p136
I00
sS'form.textfile_local_labels_file.data'
p137
g118
sS'form.textfile_use_local_files.data'
p138
I00
sS'form.textfile_local_val_images.data'
p139
g118
sS'form.textfile_test_images.data'
p140
g118
sS'form.dataset_name.data'
p141
g113
sS'form.resize_width.data'
p142
I10
sS'form.textfile_train_folder.data'
p143
g118
sS'form.slurm_cpu_count.data'
p144
I8
sS'form.group_name.data'
p145
g109
sS'form.folder_test.data'
p146
g118
sS'form.folder_test_min_per_class.data'
p147
I2
sS'form.textfile_shuffle.data'
p148
I1
sS'form.folder_pct_val.data'
p149
I25
sS'form.resize_mode.data'
p150
g72
sS'form.resize_channels.data'
p151
V3
p152
sS'form.method.data'
p153
Vfolder
p154
sS'form.textfile_test_folder.data'
p155
g118
sS'form.folder_pct_test.data'
p156
I0
sS'form.encoding.data'
p157
g70
sS'form.textfile_use_val.data'
p158
I00
sS'form.textfile_val_images.data'
p159
g118
sS'form.textfile_local_test_images.data'
p160
g118
ssg49
I0
sS'_id'
p161
S'20161209-101835-54a7'
p162
sS'pickver_job_dataset_image_classification'
p163
I2
sg54
(lp164
((idigits.status
Status
p165
g58
bF1481239115.027997
tp166
a((idigits.status
Status
p167
g61
bF1481239115.040418
tp168
asb.