ccopy_reg
_reconstructor
p0
(cdigits.dataset.images.classification.job
ImageClassificationDatasetJob
p1
c__builtin__
object
p2
Ntp3
Rp4
(dp5
S'username'
p6
Vdigits-testsuite
p7
sS'_notes'
p8
NsS'tasks'
p9
(lp10
g0
(cdigits.dataset.tasks.parse_folder
ParseFolderTask
p11
g2
Ntp12
Rp13
(dp14
S'node'
p15
S''
p16
sS'time_limit'
p17
NsS'percent_test'
p18
F0.0
sS'train_count'
p19
NsS'percent_val'
p20
F25.0
sS'val_file'
p21
S'val.txt'
p22
sS'job_num'
p23
S'4015347'
p24
sS'exception'
p25
NsS'pickver_task_parsefolder'
p26
I1
sS'test_count'
p27
NsS'system_type'
p28
S'slurm'
p29
sS'max_per_category'
p30
NsS'pickver_task'
p31
I1
sS's_mem'
p32
NsS'labels_file'
p33
S'labels.txt'
p34
sS'current_resources'
p35
(dp36
S'parse_folder_task_pool'
p37
(lp38
(I46913983164688
I1
tp39
assS'job_id'
p40
S'20161209-101909-2c84'
p41
sS'train_file'
p42
S'train.txt'
p43
sS'traceback'
p44
NsS'label_count'
p45
NsS'job_dir'
p46
S'/data/zim021/digits-proj/DIGITS/tmpbESqUM/20161209-101909-2c84'
p47
sS's_cpu_count'
p48
NsS'parents'
p49
NsS'progress'
p50
I0
sS'folder'
p51
V/tmp/zim021.1042/tmp5yfJT_
p52
sS'min_per_category'
p53
I2
sS'val_count'
p54
NsS'status_history'
p55
(lp56
((idigits.status
Status
p57
S'I'
p59
bF1481239149.493093
tp60
a((idigits.status
Status
p61
S'R'
p62
bF1481239149.506297
tp63
asbag0
(cdigits.dataset.tasks.create_db
CreateDbTask
p64
g2
Ntp65
Rp66
(dp67
g17
I0
sS'shuffle'
p68
I01
sS'pickver_task_createdb'
p69
I3
sS'encoding'
p70
Vpng
p71
sg23
g16
sS'resize_mode'
p72
Vsquash
p73
sg28
g29
sS'entries_count'
p74
NsS'backend'
p75
Vlmdb
p76
sg32
I10
sS'compression'
p77
S'none'
p78
sg46
g47
sg49
(lp79
g13
asg50
I0
sg15
g16
sg33
g34
sS'input_file'
p80
g43
sS'image_dims'
p81
(I10
I10
I1
tp82
sS'db_name'
p83
S'train_db'
p84
sg31
I1
sS'image_folder'
p85
Nsg40
S'20161209-101909-2c84'
p86
sg25
Nsg44
NsS'mean_file'
p87
S'mean.binaryproto'
p88
sg48
I8
sS'image_channel_order'
p89
NsS'create_db_log_file'
p90
S'create_train_db.log'
p91
sS'distribution'
p92
Nsg55
(lp93
((idigits.status
Status
p94
g59
bF1481239149.493199
tp95
asbag0
(g64
g2
Ntp96
Rp97
(dp98
g17
I0
sg68
I01
sg69
I3
sg70
g71
sg23
g16
sg72
g73
sg28
g29
sg74
Nsg75
g76
sg32
I10
sg77
g78
sg46
g47
sg49
(lp99
g13
asg50
I0
sg15
g16
sg33
g34
sg80
g22
sg81
g82
sg83
S'val_db'
p100
sg31
I1
sg85
Nsg40
S'20161209-101909-2c84'
p101
sg25
Nsg44
Nsg87
Nsg48
I8
sg89
Nsg90
S'create_val_db.log'
p102
sg92
Nsg55
(lp103
((idigits.status
Status
p104
g59
bF1481239149.493267
tp105
asbasg33
g34
sg81
g82
sg72
g73
sS'pickver_job'
p106
I2
sS'pickver_job_dataset_image'
p107
I1
sg25
NsS'group'
p108
Vtest_group
p109
sS'pickver_job_dataset'
p110
I1
sS'persistent'
p111
I01
sS'_name'
p112
Vtest_dataset
p113
sS'form_data'
p114
(dp115
S'form.compression.data'
p116
g78
sS'form.textfile_labels_file.data'
p117
V
p118
sS'form.textfile_local_train_images.data'
p119
g118
sS'form.resize_height.data'
p120
I10
sS'form.folder_train.data'
p121
g52
sS'form.folder_val_max_per_class.data'
p122
NsS'form.folder_train_min_per_class.data'
p123
I2
sS'form.textfile_val_folder.data'
p124
g118
sS'form.slurm_mem.data'
p125
I10
sS'form.slurm_time_limit.data'
p126
I0
sS'form.backend.data'
p127
g76
sS'form.slurm_selector.data'
p128
I00
sS'form.has_test_folder.data'
p129
I00
sS'form.folder_test_max_per_class.data'
p130
NsS'form.textfile_train_images.data'
p131
g118
sS'form.folder_train_max_per_class.data'
p132
NsS'form.folder_val.data'
p133
g118
sS'form.textfile_use_test.data'
p134
I00
sS'form.folder_val_min_per_class.data'
p135
I2
sS'form.has_val_folder.data'
p136
I00
sS'form.textfile_local_labels_file.data'
p137
g118
sS'form.textfile_use_local_files.data'
p138
I00
sS'form.textfile_local_val_images.data'
p139
g118
sS'form.textfile_test_images.data'
p140
g118
sS'form.dataset_name.data'
p141
g113
sS'form.resize_width.data'
p142
I10
sS'form.textfile_train_folder.data'
p143
g118
sS'form.slurm_cpu_count.data'
p144
I8
sS'form.group_name.data'
p145
g109
sS'form.folder_test.data'
p146
g118
sS'form.folder_test_min_per_class.data'
p147
I2
sS'form.textfile_shuffle.data'
p148
I1
sS'form.folder_pct_val.data'
p149
I25
sS'form.resize_mode.data'
p150
g73
sS'form.resize_channels.data'
p151
V1
p152
sS'form.method.data'
p153
Vfolder
p154
sS'form.textfile_test_folder.data'
p155
g118
sS'form.folder_pct_test.data'
p156
I0
sS'form.encoding.data'
p157
g71
sS'form.textfile_use_val.data'
p158
I00
sS'form.textfile_val_images.data'
p159
g118
sS'form.textfile_local_test_images.data'
p160
g118
ssg50
I0
sS'_id'
p161
S'20161209-101909-2c84'
p162
sS'pickver_job_dataset_image_classification'
p163
I2
sg55
(lp164
((idigits.status
Status
p165
g59
bF1481239149.492717
tp166
a((idigits.status
Status
p167
g62
bF1481239149.504902
tp168
asb.