ccopy_reg
_reconstructor
p0
(cdigits.dataset.generic.job
GenericDatasetJob
p1
c__builtin__
object
p2
Ntp3
Rp4
(dp5
S'_notes'
p6
NsS'username'
p7
Vdigits-testsuite
p8
sS'tasks'
p9
(lp10
g0
(cdigits.dataset.tasks.create_generic_db
CreateGenericDbTask
p11
g2
Ntp12
Rp13
(dp14
S'node'
p15
S''
p16
sS'time_limit'
p17
NsS'feature_shape'
p18
NsS'pickver_task_create_generic_db'
p19
I1
sS'job_num'
p20
g16
sS'label_shape'
p21
NsS'job'
p22
g4
sS'system_type'
p23
S'slurm'
p24
sS'create_db_log_file'
p25
S'create_train_db_db.log'
p26
sS'dbs'
p27
(dp28
S'labels'
p29
NsS'features'
p30
NssS's_cpu_count'
p31
NsS'pickver_task'
p32
I1
sS'backend'
p33
Vlmdb
p34
sS's_mem'
p35
NsS'exception'
p36
NsS'current_resources'
p37
(dp38
S'create_db_task_pool'
p39
(lp40
(I46913983164880
I1
tp41
assS'job_id'
p42
S'20161209-101856-7b38'
p43
sS'traceback'
p44
NsS'mean_file'
p45
NsS'job_dir'
p46
S'/data/zim021/digits-proj/DIGITS/tmpbESqUM/20161209-101856-7b38'
p47
sS'entry_count'
p48
I0
sS'parents'
p49
NsS'progress'
p50
I0
sS'stage'
p51
S'train_db'
p52
sS'status_history'
p53
(lp54
((idigits.status
Status
p55
S'I'
p57
bF1481239136.960815
tp58
a((idigits.status
Status
p59
S'R'
p60
bF1481239136.997085
tp61
asbag0
(g11
g2
Ntp62
Rp63
(dp64
g15
g16
sg17
Nsg18
Nsg19
I1
sg20
g16
sg21
Nsg22
g4
sg23
g24
sg25
S'create_val_db_db.log'
p65
sg27
(dp66
g29
Nsg30
Nssg31
Nsg32
I1
sg33
g34
sg35
Nsg36
Nsg37
(dp67
g39
(lp68
(I46913983164880
I1
tp69
assg42
S'20161209-101856-7b38'
p70
sg44
Nsg45
Nsg46
g47
sg48
I0
sg49
Nsg50
I0
sg51
S'val_db'
p71
sg53
(lp72
((idigits.status
Status
p73
g57
bF1481239136.960941
tp74
a((idigits.status
Status
p75
g60
bF1481239137.014371
tp76
asbag0
(g11
g2
Ntp77
Rp78
(dp79
g15
g16
sg17
Nsg18
Nsg19
I1
sg20
g16
sg21
Nsg22
g4
sg23
g24
sg25
S'create_test_db_db.log'
p80
sg27
(dp81
g29
Nsg30
Nssg31
Nsg32
I1
sg33
g34
sg35
Nsg36
Nsg37
(dp82
g39
(lp83
(I46913983164880
I1
tp84
assg42
S'20161209-101856-7b38'
p85
sg44
Nsg45
Nsg46
g47
sg48
I0
sg49
Nsg50
I0
sg51
S'test_db'
p86
sg53
(lp87
((idigits.status
Status
p88
g57
bF1481239136.961
tp89
asbasS'pickver_job_dataset_extension'
p90
I1
sS'batch_size'
p91
I32
sS'force_same_shape'
p92
I1
sS'form_data'
p93
(dp94
S'form.dsopts_num_threads.data'
p95
I4
sS'form.has_val_folder.data'
p96
I00
sS'form.channel_conversion.data'
p97
VL
p98
sS'form.dsopts_force_same_shape.data'
p99
I1
sS'form.dsopts_batch_size.data'
p100
I32
sS'form.folder_pct_val.data'
p101
I10
sS'form.slurm_selector.data'
p102
I00
sS'form.dsopts_label_encoding.data'
p103
Vnone
p104
sS'form.slurm_cpu_count.data'
p105
I8
sS'form.validation_feature_folder.data'
p106
V
p107
sS'form.feature_folder.data'
p108
V/tmp/zim021.1042/tmpKxm4aO
p109
sS'form.dsopts_backend.data'
p110
g34
sS'form.group_name.data'
p111
Vtest_group
p112
sS'form.slurm_time_limit.data'
p113
I0
sS'form.slurm_mem.data'
p114
I10
sS'form.dsopts_feature_encoding.data'
p115
Vpng
p116
sS'form.validation_label_folder.data'
p117
g107
sS'form.dataset_name.data'
p118
Vtest_dataset
p119
sS'form.label_folder.data'
p120
V/tmp/zim021.1042/tmpKxm4aO
p121
ssS'pickver_job'
p122
I2
sg33
g34
sS'num_threads'
p123
I4
sg36
NsS'group'
p124
g112
sS'feature_encoding'
p125
g116
sS'persistent'
p126
I01
sS'_name'
p127
g119
sS'extension_userdata'
p128
(dp129
S'validation_label_folder'
p130
g107
sS'folder_pct_val'
p131
I10
sS'has_val_folder'
p132
I00
sS'label_folder'
p133
g121
sS'feature_folder'
p134
g109
sS'validation_feature_folder'
p135
g107
sS'seed'
p136
I731
sS'channel_conversion'
p137
g98
ssS'extension_id'
p138
Vimage-processing
p139
sS'label_encoding'
p140
g104
sg50
I0
sS'_id'
p141
S'20161209-101856-7b38'
p142
sS'pickver_job_dataset'
p143
I1
sg53
(lp144
((idigits.status
Status
p145
g57
bF1481239136.960292
tp146
a((idigits.status
Status
p147
g60
bF1481239136.969119
tp148
asb.