ccopy_reg
_reconstructor
p0
(cdigits.dataset.images.classification.job
ImageClassificationDatasetJob
p1
c__builtin__
object
p2
Ntp3
Rp4
(dp5
S'username'
p6
Va
p7
sS'_notes'
p8
NsS'tasks'
p9
(lp10
g0
(cdigits.dataset.tasks.parse_folder
ParseFolderTask
p11
g2
Ntp12
Rp13
(dp14
S'node'
p15
S''
p16
sS'train_count'
p17
I45002
sS'percent_test'
p18
F0.0
sS'labels_file'
p19
S'labels.txt'
p20
sS'percent_val'
p21
F25.0
sS'val_file'
p22
S'val.txt'
p23
sS'job_num'
p24
S'3889617'
p25
sS'pickver_task_parsefolder'
p26
I1
sS'test_count'
p27
I0
sS'system_type'
p28
S'slurm'
p29
sS'max_per_category'
p30
NsS'pickver_task'
p31
I1
sS'exception'
p32
NsS'current_resources'
p33
NsS'job_id'
p34
S'20161129-143350-ecd3'
p35
sS'train_file'
p36
S'train.txt'
p37
sS'traceback'
p38
NsS'label_count'
p39
I10
sS'job_dir'
p40
S'/data/zim021/digits-proj/DIGITS/digits/jobs/20161129-143350-ecd3'
p41
sS'parents'
p42
NsS'progress'
p43
F1.0
sS'folder'
p44
V/home/zim021/mnist/train
p45
sS'min_per_category'
p46
I2
sS'val_count'
p47
I14998
sS'status_history'
p48
(lp49
((idigits.status
Status
p50
S'I'
p52
bF1480390430.394572
tp53
a((idigits.status
Status
p54
S'R'
p55
bF1480390431.906875
tp56
a((idigits.status
Status
p57
S'D'
p58
bF1480390441.366915
tp59
asbag0
(cdigits.dataset.tasks.create_db
CreateDbTask
p60
g2
Ntp61
Rp62
(dp63
g15
g16
sg19
g20
sg38
NsS'shuffle'
p64
I01
sS'pickver_task_createdb'
p65
I3
sS'encoding'
p66
Vpng
p67
sS'image_dims'
p68
(I28
I28
I3
tp69
sg24
S'3889716'
p70
sS'resize_mode'
p71
Vsquash
p72
sS'mean_file'
p73
S'mean.binaryproto'
p74
sS'db_name'
p75
S'train_db'
p76
sg28
g29
sS'create_db_log_file'
p77
S'create_train_db.log'
p78
sS'entries_count'
p79
I45002
sg31
I1
sS'distribution'
p80
(dp81
V1
p82
I5057
sV0
p83
I4442
sV3
p84
I4598
sV2
p85
I4469
sV5
p86
I4066
sV4
p87
I4382
sV7
p88
I4699
sV6
p89
I4439
sV9
p90
I4462
sV8
p91
I4388
ssS'image_folder'
p92
NsS'backend'
p93
Vlmdb
p94
sS'_labels'
p95
(lp96
S'0'
p97
aS'1'
p98
aS'2'
p99
aS'3'
p100
aS'4'
p101
aS'5'
p102
aS'6'
p103
aS'7'
p104
aS'8'
p105
aS'9'
p106
asg32
Nsg33
NsS'compression'
p107
S'none'
p108
sS'input_file'
p109
g37
sg34
S'20161129-143350-ecd3'
p110
sg40
g41
sg42
(lp111
g13
asS'image_channel_order'
p112
S'BGR'
p113
sg43
F1.0
sg48
(lp114
((idigits.status
Status
p115
g52
bF1480390430.394799
tp116
a((idigits.status
Status
p117
g55
bF1480390441.712722
tp118
a((idigits.status
Status
p119
g58
bF1480390486.187508
tp120
asbag0
(g60
g2
Ntp121
Rp122
(dp123
g15
g16
sg19
g20
sg38
Nsg64
I01
sg65
I3
sg66
g67
sg68
g69
sg24
S'3889717'
p124
sg71
g72
sg73
Nsg75
S'val_db'
p125
sg28
g29
sg77
S'create_val_db.log'
p126
sg79
I14998
sg31
I1
sg80
(dp127
g82
I1685
sg83
I1481
sg84
I1533
sg85
I1489
sg86
I1355
sg87
I1460
sg88
I1566
sg89
I1479
sg90
I1487
sg91
I1463
ssg92
Nsg93
g94
sg95
(lp128
g97
ag98
ag99
ag100
ag101
ag102
ag103
ag104
ag105
ag106
asg32
Nsg33
Nsg107
g108
sg109
g23
sg34
S'20161129-143350-ecd3'
p129
sg40
g41
sg42
(lp130
g13
asg112
g113
sg43
F1.0
sg48
(lp131
((idigits.status
Status
p132
g52
bF1480390430.39488
tp133
a((idigits.status
Status
p134
g55
bF1480390441.724904
tp135
a((idigits.status
Status
p136
g58
bF1480390460.571796
tp137
asbasg19
g20
sg68
g69
sg71
g72
sS'pickver_job'
p138
I2
sS'pickver_job_dataset_image'
p139
I1
sg32
NsS'group'
p140
V
p141
sS'pickver_job_dataset_image_classification'
p142
I2
sS'persistent'
p143
I01
sS'_name'
p144
Vmmm
p145
sS'form_data'
p146
(dp147
S'form.textfile_local_train_images.data'
p148
g141
sS'form.resize_height.data'
p149
I28
sS'form.folder_train.data'
p150
g45
sS'form.folder_val_max_per_class.data'
p151
NsS'form.folder_train_min_per_class.data'
p152
I2
sS'form.textfile_val_folder.data'
p153
g141
sS'form.backend.data'
p154
g94
sS'form.has_test_folder.data'
p155
I00
sS'form.method.data'
p156
Vfolder
p157
sS'form.encoding.data'
p158
g67
sS'form.folder_test_max_per_class.data'
p159
NsS'form.compression.data'
p160
g108
sS'form.folder_val.data'
p161
g141
sS'form.textfile_use_test.data'
p162
I00
sS'form.folder_val_min_per_class.data'
p163
I2
sS'form.folder_pct_test.data'
p164
I0
sS'form.has_val_folder.data'
p165
I00
sS'form.dataset_name.data'
p166
g145
sS'form.textfile_shuffle.data'
p167
I1
sS'form.textfile_local_val_images.data'
p168
g141
sS'form.textfile_train_folder.data'
p169
g141
sS'form.group_name.data'
p170
g141
sS'form.folder_train_max_per_class.data'
p171
NsS'form.folder_test.data'
p172
g141
sS'form.folder_test_min_per_class.data'
p173
I2
sS'form.folder_pct_val.data'
p174
I25
sS'form.resize_mode.data'
p175
g72
sS'form.resize_channels.data'
p176
V3
p177
sS'form.textfile_test_folder.data'
p178
g141
sS'form.textfile_local_labels_file.data'
p179
g141
sS'form.textfile_use_local_files.data'
p180
I00
sS'form.resize_width.data'
p181
I28
sS'form.textfile_use_val.data'
p182
I01
sS'form.textfile_local_test_images.data'
p183
g141
ssg43
F1.0
sS'_id'
p184
S'20161129-143350-ecd3'
p185
sS'pickver_job_dataset'
p186
I1
sg48
(lp187
((idigits.status
Status
p188
g52
bF1480390430.393833
tp189
a((idigits.status
Status
p190
g55
bF1480390431.84492
tp191
a((idigits.status
Status
p192
g58
bF1480390486.420221
tp193
asb.