ccopy_reg
_reconstructor
p0
(cdigits.model.images.classification.job
ImageClassificationModelJob
p1
c__builtin__
object
p2
Ntp3
Rp4
(dp5
S'username'
p6
Vqa
p7
sS'_notes'
p8
NsS'tasks'
p9
(lp10
g0
(cdigits.model.tasks.caffe_train
CaffeTrainTask
p11
g2
Ntp12
Rp13
(dp14
S'node'
p15
S''
p16
sS'shuffle'
p17
I01
sS'snapshot_interval'
p18
F1.0
sS'job_num'
p19
S'3888297'
p20
sS'caffe_version'
p21
S'1.0.0-rc3'
p22
sS'train_outputs'
p23
ccollections
OrderedDict
p24
((lp25
(lp26
S'epoch'
p27
ag0
(cdigits.model.tasks.train
NetworkOutput
p28
c__builtin__
tuple
p29
(S'Epoch'
p30
(lp31
I0
aF0.11221590909090909
aF0.22443181818181818
aF0.3366477272727273
aF0.44886363636363635
aF0.5610795454545454
aF0.6732954545454546
atp32
tp33
Rp34
aa(lp35
S'loss'
p36
ag0
(g28
g29
(S'SoftmaxWithLoss'
p37
(lp38
F2.49821
aF0.256778
aF0.36331
aF0.259146
aF0.338048
aF0.0325985
aF0.126076
atp39
tp40
Rp41
aa(lp42
S'learning_rate'
p43
ag0
(g28
g29
(S'LearningRate'
p44
(lp45
F0.01
aF0.01
aF0.01
aF0.01
aF0.01
aF0.01
aF0.01
atp46
tp47
Rp48
aatp49
Rp50
sS'val_outputs'
p51
g24
((lp52
(lp53
g27
ag0
(g28
g29
(g30
(lp54
I0
atp55
tp56
Rp57
aa(lp58
S'accuracy'
p59
ag0
(g28
g29
(S'Accuracy'
p60
(lp61
F0.10621
atp62
tp63
Rp64
aa(lp65
S'loss'
p66
ag0
(g28
g29
(S'SoftmaxWithLoss'
p67
(lp68
F2.59559
atp69
tp70
Rp71
aatp72
Rp73
sS'loaded_snapshot_epoch'
p74
NsS'pretrained_model'
p75
NsS'deploy_file'
p76
S'deploy.prototxt'
p77
sS'current_iteration'
p78
I474
sS'gpu_count'
p79
I1
sS'rms_decay'
p80
F0.99
sS'train_epochs'
p81
I30
sS'network'
p82
ccaffe_pb2
NetParameter
p83
(tRp84
(dp85
S'serialized'
p86
S'\n\x05LeNet\xa2\x06-\n\ntrain-data\x12\x04Data"\x04data"\x05labelB\x07"\x05train\xda\x06\x02 @\xa2\x06)\n\x08val-data\x12\x04Data"\x04data"\x05labelB\x05"\x03val\xda\x06\x02  \xa2\x06$\n\x05scale\x12\x05Power\x1a\x04data"\x06scaled\xd2\x07\x05\x15\xcd\xccL<\xa2\x06P\n\x05conv1\x12\x0bConvolution\x1a\x06scaled"\x05conv12\x05\x1d\x00\x00\x80?2\x05\x1d\x00\x00\x00@\xd2\x06\x1c\x08\x14 \x050\x01:\x08\n\x06xavierB\n\n\x08constant\xa2\x06\'\n\x05pool1\x12\x07Pooling\x1a\x05conv1"\x05pool1\xca\x07\x06\x08\x00\x10\x02\x18\x02\xa2\x06O\n\x05conv2\x12\x0bConvolution\x1a\x05pool1"\x05conv22\x05\x1d\x00\x00\x80?2\x05\x1d\x00\x00\x00@\xd2\x06\x1c\x082 \x050\x01:\x08\n\x06xavierB\n\n\x08constant\xa2\x06\'\n\x05pool2\x12\x07Pooling\x1a\x05conv2"\x05pool2\xca\x07\x06\x08\x00\x10\x02\x18\x02\xa2\x06I\n\x03ip1\x12\x0cInnerProduct\x1a\x05pool2"\x03ip12\x05\x1d\x00\x00\x80?2\x05\x1d\x00\x00\x00@\xaa\x07\x19\x08\xf4\x03\x1a\x08\n\x06xavier"\n\n\x08constant\xa2\x06\x17\n\x05relu1\x12\x04ReLU\x1a\x03ip1"\x03ip1\xa2\x06D\n\x03ip2\x12\x0cInnerProduct\x1a\x03ip1"\x03ip22\x05\x1d\x00\x00\x80?2\x05\x1d\x00\x00\x00@\xaa\x07\x16\x1a\x08\n\x06xavier"\n\n\x08constant\xa2\x061\n\x08accuracy\x12\x08Accuracy\x1a\x03ip2\x1a\x05label"\x08accuracyB\x05"\x03val\xa2\x063\n\x04loss\x12\x0fSoftmaxWithLoss\x1a\x03ip2\x1a\x05label"\x04lossJ\x08"\x06deploy\xa2\x06*\n\x07softmax\x12\x07Softmax\x1a\x03ip2"\x07softmaxB\x08"\x06deploy'
p87
sbsS'use_mean'
p88
Vimage
p89
sS'model_file'
p90
S'original.prototxt'
p91
sS'job_dir'
p92
S'/data/zim021/digits-proj/DIGITS/digits/jobs/20161129-093324-e0ee'
p93
sS'receiving_val_output'
p94
I00
sS'parents'
p95
NsS'caffe_flavor'
p96
S'BVLC'
p97
sS'lr_policy'
p98
(dp99
S'policy'
p100
Vstep
p101
sS'stepsize'
p102
F33.0
sS'gamma'
p103
F0.1
ssS'crop_size'
p104
NsS'receiving_train_output'
p105
I00
sS'val_interval'
p106
F1.0
sS'current_epoch'
p107
F0.6732954545454546
sS'random_seed'
p108
NsS'saving_snapshot'
p109
I00
sS'pickver_task_caffe_train'
p110
I5
sg43
F0.01
sS'loaded_snapshot_file'
p111
NsS'batch_size'
p112
NsS'digits_version'
p113
S'5.1-dev'
p114
sS'job'
p115
g4
sS'pickver_task_train'
p116
I2
sS'current_resources'
p117
NsS'pickver_task'
p118
I1
sS'job_id'
p119
S'20161129-093324-e0ee'
p120
sS'exception'
p121
NsS'data_aug'
p122
(dp123
S'scale'
p124
F0.0
sS'hsv_use'
p125
I00
sS'flip'
p126
Vnone
p127
sS'quad_rot'
p128
Vnone
p129
sS'hsv_h'
p130
F0.02
sS'noise'
p131
F0.0
sS'hsv_s'
p132
F0.04
sS'rot'
p133
I0
sS'hsv_v'
p134
F0.06
ssS'selected_gpus'
p135
NsS'solver'
p136
ccaffe_pb2
SolverParameter
p137
(tRp138
(dp139
g86
S'\x18\xd5\x03 \xc0\x05-\n\xd7#<0O8\x80\xa5\x01B\x04stepM\xcd\xcc\xcc=]fff?e\x17\xb7\xd18h\xba6p\xc0\x05z\x08snapshot\x88\x01\x01\xc2\x01\x12train_val.prototxt\xf0\x01\x00'
p140
sbsS'snapshot_prefix'
p141
S'snapshot'
p142
sS'traceback'
p143
NsS'framework_id'
p144
S'caffe'
p145
sS'status_history'
p146
(lp147
((idigits.status
Status
p148
S'I'
p150
bF1480372404.230374
tp151
a((idigits.status
Status
p152
S'R'
p153
bF1480372405.306158
tp154
a((idigits.status
Status
p155
S'A'
p156
bF1480372410.741593
tp157
asS'last_train_update'
p158
F1480372408.021514
sS'train_val_file'
p159
S'train_val.prototxt'
p160
sS'image_mean'
p161
NsS'batch_accumulation'
p162
NsS'progress'
p163
F0.02244318181818182
sS'log_file'
p164
S'caffe_output.log'
p165
sS'solver_file'
p166
S'solver.prototxt'
p167
sS'solver_type'
p168
VSGD
p169
sbasS'pickver_job'
p170
I2
sS'dataset_id'
p171
S'20161125-161231-08c0'
p172
sS'pickver_job_model_image'
p173
I1
sg121
NsS'group'
p174
V
p175
sS'persistent'
p176
I01
sS'_name'
p177
Vlenet
p178
sS'form_data'
p179
(dp180
S'form.standard_networks.data'
p181
Vlenet
p182
sS'form.learning_rate.data'
p183
(lp184
F0.01
asS'form.aug_flip.data'
p185
g127
sS'form.select_gpus.data'
p186
(lp187
sS'form.framework.data'
p188
Vcaffe
p189
sS'form.dataset.data'
p190
V20161125-161231-08c0
p191
sS'form.python_layer_from_client.data'
p192
I00
sS'form.lr_multistep_values.data'
p193
V50,85
p194
sS'form.aug_hsv_s.data'
p195
F0.04
sS'form.lr_sigmoid_gamma.data'
p196
F0.1
sS'form.lr_policy.data'
p197
g101
sS'form.previous_networks.data'
p198
VNone
p199
sS'form.select_gpu.data'
p200
Vnext
p201
sS'form.aug_quad_rot.data'
p202
g129
sS'form.rms_decay.data'
p203
F0.99
sS'form.method.data'
p204
Vstandard
p205
sS'form.lr_sigmoid_step.data'
p206
F50.0
sS'form.crop_size.data'
p207
NsS'form.select_gpu_count.data'
p208
I1
sS'form.python_layer_server_file.data'
p209
g175
sS'form.pretrained_networks.data'
p210
VNone
p211
sS'form.solver_type.data'
p212
g169
sS'form.aug_noise.data'
p213
F0.0
sS'form.select_gpus_list.data'
p214
g175
sS'form.shuffle.data'
p215
I01
sS'form.aug_scale.data'
p216
F0.0
sS'form.batch_accumulation.data'
p217
NsS'form.batch_size.data'
p218
(lp219
NasS'form.custom_network.data'
p220
g175
sS'form.group_name.data'
p221
g175
sS'form.use_mean.data'
p222
g89
sS'form.lr_inv_gamma.data'
p223
F0.1
sS'form.lr_step_gamma.data'
p224
F0.1
sS'form.snapshot_interval.data'
p225
F1.0
sS'form.lr_step_size.data'
p226
F33.0
sS'form.aug_hsv_use.data'
p227
I00
sS'form.lr_inv_power.data'
p228
F0.5
sS'form.aug_hsv_v.data'
p229
F0.06
sS'form.custom_network_snapshot.data'
p230
g175
sS'form.lr_poly_power.data'
p231
F3.0
sS'form.lr_multistep_gamma.data'
p232
F0.5
sS'form.model_name.data'
p233
g178
sS'form.lr_exp_gamma.data'
p234
F0.95
sS'form.val_interval.data'
p235
F1.0
sS'form.aug_rot.data'
p236
I0
sS'form.train_epochs.data'
p237
I30
sS'form.random_seed.data'
p238
NsS'form.aug_hsv_h.data'
p239
F0.02
ssg163
I0
sS'_id'
p240
S'20161129-093324-e0ee'
p241
sS'pickver_job_dataset'
p242
I1
sg146
(lp243
((idigits.status
Status
p244
g150
bF1480372404.217154
tp245
a((idigits.status
Status
p246
g153
bF1480372405.242428
tp247
a((idigits.status
Status
p248
g156
bF1480372410.260112
tp249
asS'pickver_job_model_image_classification'
p250
I1
sb.