ccopy_reg
_reconstructor
p0
(cdigits.pretrained_model.job
PretrainedModelJob
p1
c__builtin__
object
p2
Ntp3
Rp4
(dp5
S'username'
p6
Vdigits-testsuite
p7
sS'tasks'
p8
(lp9
g0
(cdigits.pretrained_model.tasks.caffe_upload
CaffeUploadTask
p10
g2
Ntp11
Rp12
(dp13
S'node'
p14
S''
p15
sS'model_def_path'
p16
V/data/zim021/digits-proj/DIGITS/tmp/tmpD_NNU5/original.prototxt
p17
sS'weights_path'
p18
V/data/zim021/digits-proj/DIGITS/tmp/tmpD_NNU5/snapshot_iter_3.caffemodel
p19
sS'job_num'
p20
g15
sS'labels_path'
p21
V/data/zim021/digits-proj/DIGITS/tmp/tmpD_NNU5/labels.txt
p22
sS'framework'
p23
NsS'system_type'
p24
S'slurm'
p25
sS'gpu'
p26
NsS'pickver_task'
p27
I1
sS'exception'
p28
NsS'current_resources'
p29
NsS'job_id'
p30
S'20161209-112702-45da'
p31
sS'traceback'
p32
NsS'job_dir'
p33
S'/data/zim021/digits-proj/DIGITS/tmp/tmpyzXVAu/20161209-112702-45da'
p34
sS'parents'
p35
NsS'image_info'
p36
(dp37
S'image_type'
p38
S'3'
p39
sS'width'
p40
I224
sS'resize_mode'
p41
S'Squash'
p42
sS'height'
p43
I224
ssS'progress'
p44
F1.0
sS'status_history'
p45
(lp46
((idigits.status
Status
p47
S'I'
p49
bF1481243222.448154
tp50
a((idigits.status
Status
p51
S'D'
p52
bF1481243222.453846
tp53
asbasS'_name'
p54
Vtest_model
p55
sg23
Vcaffe
p56
sg36
g37
sS'_id'
p57
S'20161209-112702-45da'
p58
sg45
(lp59
((idigits.status
Status
p60
g49
bF1481243222.447757
tp61
a((idigits.status
Status
p62
S'R'
p63
bF1481243222.449913
tp64
a((idigits.status
Status
p65
g52
bF1481243222.501553
tp66
asb.