ccopy_reg
_reconstructor
p0
(cdigits.model.images.classification.job
ImageClassificationModelJob
p1
c__builtin__
object
p2
Ntp3
Rp4
(dp5
S'username'
p6
Va
p7
sS'_notes'
p8
NsS'tasks'
p9
(lp10
g0
(cdigits.model.tasks.caffe_train
CaffeTrainTask
p11
g2
Ntp12
Rp13
(dp14
S'shuffle'
p15
I01
sS'snapshot_interval'
p16
F1.0
sS'caffe_version'
p17
S'1.0.0-rc3'
p18
sS'train_outputs'
p19
ccollections
OrderedDict
p20
((lp21
(lp22
S'epoch'
p23
ag0
(cdigits.model.tasks.train
NetworkOutput
p24
c__builtin__
tuple
p25
(S'Epoch'
p26
(lp27
I0
aF0.11221590909090909
aF0.22443181818181818
aF0.3366477272727273
aF0.44886363636363635
atp28
tp29
Rp30
aa(lp31
S'loss'
p32
ag0
(g24
g25
(S'SoftmaxWithLoss'
p33
(lp34
F2.82056
aF0.373731
aF0.308313
aF0.228539
aF0.299355
atp35
tp36
Rp37
aa(lp38
S'learning_rate'
p39
ag0
(g24
g25
(S'LearningRate'
p40
(lp41
F0.01
aF0.01
aF0.01
aF0.01
aF0.01
atp42
tp43
Rp44
aatp45
Rp46
sS'val_outputs'
p47
g20
((lp48
(lp49
g23
ag0
(g24
g25
(g26
(lp50
I0
atp51
tp52
Rp53
aa(lp54
S'accuracy'
p55
ag0
(g24
g25
(S'Accuracy'
p56
(lp57
F0.0702958
atp58
tp59
Rp60
aa(lp61
S'loss'
p62
ag0
(g24
g25
(S'SoftmaxWithLoss'
p63
(lp64
F2.84675
atp65
tp66
Rp67
aatp68
Rp69
sS'loaded_snapshot_epoch'
p70
NsS'pretrained_model'
p71
NsS'deploy_file'
p72
S'deploy.prototxt'
p73
sS'current_iteration'
p74
I316
sS'gpu_count'
p75
I1
sS'rms_decay'
p76
F0.99
sS'train_epochs'
p77
I30
sS'network'
p78
ccaffe_pb2
NetParameter
p79
(tRp80
(dp81
S'serialized'
p82
S'\n\x05LeNet\xa2\x06-\n\ntrain-data\x12\x04Data"\x04data"\x05labelB\x07"\x05train\xda\x06\x02 @\xa2\x06)\n\x08val-data\x12\x04Data"\x04data"\x05labelB\x05"\x03val\xda\x06\x02  \xa2\x06$\n\x05scale\x12\x05Power\x1a\x04data"\x06scaled\xd2\x07\x05\x15\xcd\xccL<\xa2\x06P\n\x05conv1\x12\x0bConvolution\x1a\x06scaled"\x05conv12\x05\x1d\x00\x00\x80?2\x05\x1d\x00\x00\x00@\xd2\x06\x1c\x08\x14 \x050\x01:\x08\n\x06xavierB\n\n\x08constant\xa2\x06\'\n\x05pool1\x12\x07Pooling\x1a\x05conv1"\x05pool1\xca\x07\x06\x08\x00\x10\x02\x18\x02\xa2\x06O\n\x05conv2\x12\x0bConvolution\x1a\x05pool1"\x05conv22\x05\x1d\x00\x00\x80?2\x05\x1d\x00\x00\x00@\xd2\x06\x1c\x082 \x050\x01:\x08\n\x06xavierB\n\n\x08constant\xa2\x06\'\n\x05pool2\x12\x07Pooling\x1a\x05conv2"\x05pool2\xca\x07\x06\x08\x00\x10\x02\x18\x02\xa2\x06I\n\x03ip1\x12\x0cInnerProduct\x1a\x05pool2"\x03ip12\x05\x1d\x00\x00\x80?2\x05\x1d\x00\x00\x00@\xaa\x07\x19\x08\xf4\x03\x1a\x08\n\x06xavier"\n\n\x08constant\xa2\x06\x17\n\x05relu1\x12\x04ReLU\x1a\x03ip1"\x03ip1\xa2\x06D\n\x03ip2\x12\x0cInnerProduct\x1a\x03ip1"\x03ip22\x05\x1d\x00\x00\x80?2\x05\x1d\x00\x00\x00@\xaa\x07\x16\x1a\x08\n\x06xavier"\n\n\x08constant\xa2\x061\n\x08accuracy\x12\x08Accuracy\x1a\x03ip2\x1a\x05label"\x08accuracyB\x05"\x03val\xa2\x063\n\x04loss\x12\x0fSoftmaxWithLoss\x1a\x03ip2\x1a\x05label"\x04lossJ\x08"\x06deploy\xa2\x06*\n\x07softmax\x12\x07Softmax\x1a\x03ip2"\x07softmaxB\x08"\x06deploy'
p83
sbsS'use_mean'
p84
Vimage
p85
sS'model_file'
p86
S'original.prototxt'
p87
sS'job_dir'
p88
S'/data/zim021/digits-proj/DIGITS/digits/jobs/20161128-115857-d7ca'
p89
sS'receiving_val_output'
p90
I00
sS'parents'
p91
NsS'caffe_flavor'
p92
S'BVLC'
p93
sS'lr_policy'
p94
(dp95
S'policy'
p96
Vstep
p97
sS'stepsize'
p98
F33.0
sS'gamma'
p99
F0.1
ssS'crop_size'
p100
NsS'receiving_train_output'
p101
I00
sS'val_interval'
p102
F1.0
sS'current_epoch'
p103
F0.44886363636363635
sS'random_seed'
p104
NsS'saving_snapshot'
p105
I00
sS'pickver_task_caffe_train'
p106
I5
sg39
F0.01
sS'loaded_snapshot_file'
p107
NsS'batch_size'
p108
NsS'digits_version'
p109
S'5.1-dev'
p110
sS'job'
p111
g4
sS'pickver_task_train'
p112
I2
sS'current_resources'
p113
NsS'pickver_task'
p114
I1
sS'job_id'
p115
S'20161128-115857-d7ca'
p116
sS'exception'
p117
NsS'data_aug'
p118
(dp119
S'scale'
p120
F0.0
sS'hsv_use'
p121
I00
sS'flip'
p122
Vnone
p123
sS'quad_rot'
p124
Vnone
p125
sS'hsv_h'
p126
F0.02
sS'noise'
p127
F0.0
sS'hsv_s'
p128
F0.04
sS'rot'
p129
I0
sS'hsv_v'
p130
F0.06
ssS'selected_gpus'
p131
NsS'solver'
p132
ccaffe_pb2
SolverParameter
p133
(tRp134
(dp135
g82
S'\x18\xd5\x03 \xc0\x05-\n\xd7#<0O8\x80\xa5\x01B\x04stepM\xcd\xcc\xcc=]fff?e\x17\xb7\xd18h\xba6p\xc0\x05z\x08snapshot\x88\x01\x01\xc2\x01\x12train_val.prototxt\xf0\x01\x00'
p136
sbsS'snapshot_prefix'
p137
S'snapshot'
p138
sS'traceback'
p139
NsS'framework_id'
p140
S'caffe'
p141
sS'status_history'
p142
(lp143
((idigits.status
Status
p144
S'I'
p146
bF1480294737.234215
tp147
a((idigits.status
Status
p148
S'R'
p149
bF1480294738.801288
tp150
a((idigits.status
Status
p151
S'A'
p152
bF1480294742.579174
tp153
asS'last_train_update'
p154
F1480294741.142726
sS'train_val_file'
p155
S'train_val.prototxt'
p156
sS'image_mean'
p157
NsS'batch_accumulation'
p158
NsS'progress'
p159
F0.014962121212121211
sS'log_file'
p160
S'caffe_output.log'
p161
sS'solver_file'
p162
S'solver.prototxt'
p163
sS'solver_type'
p164
VSGD
p165
sbasS'pickver_job'
p166
I2
sS'dataset_id'
p167
S'20161125-161231-08c0'
p168
sS'pickver_job_model_image'
p169
I1
sg117
NsS'group'
p170
V
p171
sS'persistent'
p172
I01
sS'_name'
p173
Vlenet
p174
sS'form_data'
p175
(dp176
S'form.standard_networks.data'
p177
Vlenet
p178
sS'form.learning_rate.data'
p179
(lp180
F0.01
asS'form.aug_flip.data'
p181
g123
sS'form.select_gpus.data'
p182
(lp183
sS'form.framework.data'
p184
Vcaffe
p185
sS'form.dataset.data'
p186
V20161125-161231-08c0
p187
sS'form.python_layer_from_client.data'
p188
I00
sS'form.lr_multistep_values.data'
p189
V50,85
p190
sS'form.aug_hsv_s.data'
p191
F0.04
sS'form.lr_sigmoid_gamma.data'
p192
F0.1
sS'form.lr_policy.data'
p193
g97
sS'form.previous_networks.data'
p194
VNone
p195
sS'form.select_gpu.data'
p196
Vnext
p197
sS'form.aug_quad_rot.data'
p198
g125
sS'form.rms_decay.data'
p199
F0.99
sS'form.method.data'
p200
Vstandard
p201
sS'form.lr_sigmoid_step.data'
p202
F50.0
sS'form.crop_size.data'
p203
NsS'form.select_gpu_count.data'
p204
I1
sS'form.python_layer_server_file.data'
p205
g171
sS'form.pretrained_networks.data'
p206
VNone
p207
sS'form.solver_type.data'
p208
g165
sS'form.aug_noise.data'
p209
F0.0
sS'form.select_gpus_list.data'
p210
g171
sS'form.shuffle.data'
p211
I01
sS'form.aug_scale.data'
p212
F0.0
sS'form.batch_accumulation.data'
p213
NsS'form.batch_size.data'
p214
(lp215
NasS'form.custom_network.data'
p216
g171
sS'form.group_name.data'
p217
g171
sS'form.use_mean.data'
p218
g85
sS'form.lr_inv_gamma.data'
p219
F0.1
sS'form.lr_step_gamma.data'
p220
F0.1
sS'form.snapshot_interval.data'
p221
F1.0
sS'form.lr_step_size.data'
p222
F33.0
sS'form.aug_hsv_use.data'
p223
I00
sS'form.lr_inv_power.data'
p224
F0.5
sS'form.aug_hsv_v.data'
p225
F0.06
sS'form.custom_network_snapshot.data'
p226
g171
sS'form.lr_poly_power.data'
p227
F3.0
sS'form.lr_multistep_gamma.data'
p228
F0.5
sS'form.model_name.data'
p229
g174
sS'form.lr_exp_gamma.data'
p230
F0.95
sS'form.val_interval.data'
p231
F1.0
sS'form.aug_rot.data'
p232
I0
sS'form.train_epochs.data'
p233
I30
sS'form.random_seed.data'
p234
NsS'form.aug_hsv_h.data'
p235
F0.02
ssg159
I0
sS'_id'
p236
S'20161128-115857-d7ca'
p237
sS'pickver_job_dataset'
p238
I1
sg142
(lp239
((idigits.status
Status
p240
g146
bF1480294737.222982
tp241
a((idigits.status
Status
p242
g149
bF1480294738.503132
tp243
a((idigits.status
Status
p244
g152
bF1480294742.573165
tp245
asS'pickver_job_model_image_classification'
p246
I1
sb.