ccopy_reg
_reconstructor
p0
(cdigits.model.images.classification.job
ImageClassificationModelJob
p1
c__builtin__
object
p2
Ntp3
Rp4
(dp5
S'username'
p6
Va
p7
sS'_notes'
p8
NsS'tasks'
p9
(lp10
g0
(cdigits.model.tasks.caffe_train
CaffeTrainTask
p11
g2
Ntp12
Rp13
(dp14
S'node'
p15
S''
p16
sS'shuffle'
p17
I01
sS'snapshot_interval'
p18
F1.0
sS'job_num'
p19
S'3899390'
p20
sS'train_outputs'
p21
ccollections
OrderedDict
p22
((lp23
(lp24
S'epoch'
p25
ag0
(cdigits.model.tasks.train
NetworkOutput
p26
c__builtin__
tuple
p27
(S'Epoch'
p28
(lp29
I0
aF0.11221590909090909
aF0.22443181818181818
aF0.3366477272727273
aF0.44886363636363635
aF0.5610795454545454
aF0.6732954545454546
aF0.7855113636363636
aF0.8977272727272727
aF1.0099431818181819
aF1.1221590909090908
aF1.234375
aF1.3465909090909092
aF1.4588068181818181
aF1.5710227272727273
aF1.6832386363636365
aF1.7954545454545454
aF1.9076704545454546
aF1.1221590909090908
aF1.234375
aF1.3465909090909092
aF1.4588068181818181
aF1.5710227272727273
aF1.6832386363636365
aF1.7954545454545454
aF1.9076704545454546
atp30
tp31
Rp32
aa(lp33
S'loss'
p34
ag0
(g26
g27
(S'SoftmaxWithLoss'
p35
(lp36
(lp37
F2.67304
aF2.90557
aa(lp38
F0.223507
aF0.249992
aa(lp39
F0.265071
aF0.212125
aa(lp40
F0.222932
aF0.167062
aa(lp41
F0.331127
aF0.31714
aa(lp42
F0.0331611
aF0.0277982
aa(lp43
F0.129001
aF0.0955925
aa(lp44
F0.0970676
aF0.0623178
aa(lp45
F0.0457512
aF0.0393503
aa(lp46
F0.0276145
aF0.0815033
aaF0.0130897
aF0.0263774
aF0.00961625
aF0.030114
aF0.0112959
aF0.00798946
aF0.0285083
aF0.0235686
aF0.0204891
aF0.0460338
aF0.00570061
aF0.0291441
aF0.0117034
aF0.00749014
aF0.0328233
aF0.0336
atp47
tp48
Rp49
aa(lp50
S'learning_rate'
p51
ag0
(g26
g27
(S'LearningRate'
p52
(lp53
(lp54
F0.01
aF0.01
aa(lp55
F0.01
aF0.01
aa(lp56
F0.01
aF0.01
aa(lp57
F0.01
aF0.01
aa(lp58
F0.01
aF0.01
aa(lp59
F0.01
aF0.01
aa(lp60
F0.001
aF0.001
aa(lp61
F0.001
aF0.001
aa(lp62
F0.001
aF0.001
aa(lp63
F0.001
aF0.001
aaF0.001
aF0.001
aF0.0001
aF0.0001
aF0.0001
aF0.0001
aF0.0001
aF0.0001
aF0.001
aF0.001
aF0.0001
aF0.0001
aF0.0001
aF0.0001
aF0.0001
aF0.0001
atp64
tp65
Rp66
aatp67
Rp68
sS'system_type'
p69
S'slurm'
p70
sS'loaded_snapshot_epoch'
p71
NsS'pretrained_model'
p72
NsS'solver_type'
p73
VSGD
p74
sS'deploy_file'
p75
S'deploy.prototxt'
p76
sS'current_iteration'
p77
I1408
sS'gpu_count'
p78
I1
sS'rms_decay'
p79
F0.99
sS'train_epochs'
p80
I2
sS'network'
p81
ccaffe_pb2
NetParameter
p82
(tRp83
(dp84
S'serialized'
p85
S'\n\x05LeNet\xa2\x06-\n\ntrain-data\x12\x04Data"\x04data"\x05labelB\x07"\x05train\xda\x06\x02 @\xa2\x06)\n\x08val-data\x12\x04Data"\x04data"\x05labelB\x05"\x03val\xda\x06\x02  \xa2\x06$\n\x05scale\x12\x05Power\x1a\x04data"\x06scaled\xd2\x07\x05\x15\xcd\xccL<\xa2\x06P\n\x05conv1\x12\x0bConvolution\x1a\x06scaled"\x05conv12\x05\x1d\x00\x00\x80?2\x05\x1d\x00\x00\x00@\xd2\x06\x1c\x08\x14 \x050\x01:\x08\n\x06xavierB\n\n\x08constant\xa2\x06\'\n\x05pool1\x12\x07Pooling\x1a\x05conv1"\x05pool1\xca\x07\x06\x08\x00\x10\x02\x18\x02\xa2\x06O\n\x05conv2\x12\x0bConvolution\x1a\x05pool1"\x05conv22\x05\x1d\x00\x00\x80?2\x05\x1d\x00\x00\x00@\xd2\x06\x1c\x082 \x050\x01:\x08\n\x06xavierB\n\n\x08constant\xa2\x06\'\n\x05pool2\x12\x07Pooling\x1a\x05conv2"\x05pool2\xca\x07\x06\x08\x00\x10\x02\x18\x02\xa2\x06I\n\x03ip1\x12\x0cInnerProduct\x1a\x05pool2"\x03ip12\x05\x1d\x00\x00\x80?2\x05\x1d\x00\x00\x00@\xaa\x07\x19\x08\xf4\x03\x1a\x08\n\x06xavier"\n\n\x08constant\xa2\x06\x17\n\x05relu1\x12\x04ReLU\x1a\x03ip1"\x03ip1\xa2\x06D\n\x03ip2\x12\x0cInnerProduct\x1a\x03ip1"\x03ip22\x05\x1d\x00\x00\x80?2\x05\x1d\x00\x00\x00@\xaa\x07\x16\x1a\x08\n\x06xavier"\n\n\x08constant\xa2\x061\n\x08accuracy\x12\x08Accuracy\x1a\x03ip2\x1a\x05label"\x08accuracyB\x05"\x03val\xa2\x063\n\x04loss\x12\x0fSoftmaxWithLoss\x1a\x03ip2\x1a\x05label"\x04lossJ\x08"\x06deploy\xa2\x06*\n\x07softmax\x12\x07Softmax\x1a\x03ip2"\x07softmaxB\x08"\x06deploy'
p86
sbsS'use_mean'
p87
Vimage
p88
sS'model_file'
p89
S'original.prototxt'
p90
sS'job_dir'
p91
S'/data/zim021/digits-proj/DIGITS/digits/jobs/20161130-123714-5125'
p92
sS'receiving_val_output'
p93
I00
sS'parents'
p94
NsS'caffe_flavor'
p95
S'BVLC'
p96
sS'progress'
p97
F1.0
sS'lr_policy'
p98
(dp99
S'policy'
p100
Vstep
p101
sS'stepsize'
p102
F33.0
sS'gamma'
p103
F0.1
ssS'crop_size'
p104
NsS'receiving_train_output'
p105
I00
sS'val_interval'
p106
F1.0
sS'current_epoch'
p107
F2.0
sS'random_seed'
p108
NsS'saving_snapshot'
p109
I00
sS'pickver_task_caffe_train'
p110
I5
sg51
F0.01
sS'loaded_snapshot_file'
p111
NsS'batch_size'
p112
NsS'digits_version'
p113
S'5.1-dev'
p114
sS'job'
p115
g4
sS'pickver_task_train'
p116
I2
sS'current_resources'
p117
NsS'pickver_task'
p118
I1
sS'job_id'
p119
S'20161130-123714-5125'
p120
sS'exception'
p121
NsS'data_aug'
p122
(dp123
S'hsv_h'
p124
F0.02
sS'hsv_use'
p125
I00
sS'flip'
p126
Vnone
p127
sS'quad_rot'
p128
Vnone
p129
sS'scale'
p130
F0.0
sS'noise'
p131
F0.0
sS'hsv_s'
p132
F0.04
sS'rot'
p133
I0
sS'hsv_v'
p134
F0.06
ssS'selected_gpus'
p135
NsS'solver'
p136
ccaffe_pb2
SolverParameter
p137
(tRp138
(dp139
g85
S'\x18\xd5\x03 \xc0\x05-\n\xd7#<0O8\x80\x0bB\x04stepM\xcd\xcc\xcc=]fff?e\x17\xb7\xd18h\xd1\x03p\xc0\x05z\x08snapshot\x88\x01\x01\xc2\x01\x12train_val.prototxt\xf0\x01\x00'
p140
sbsS'snapshot_prefix'
p141
S'snapshot'
p142
sS'traceback'
p143
NsS'framework_id'
p144
S'caffe'
p145
sS'status_history'
p146
(lp147
((idigits.status
Status
p148
S'I'
p150
bF1480469834.219331
tp151
a((idigits.status
Status
p152
S'R'
p153
bF1480469835.704261
tp154
a((idigits.status
Status
p155
g153
bF1480469836.112207
tp156
a((idigits.status
Status
p157
g153
bF1480469836.397815
tp158
a((idigits.status
Status
p159
S'D'
p160
bF1480469865.745741
tp161
asS'last_train_update'
p162
F1480469865.549639
sS'train_val_file'
p163
S'train_val.prototxt'
p164
sS'image_mean'
p165
NsS'batch_accumulation'
p166
NsS'caffe_version'
p167
S'1.0.0-rc3'
p168
sS'log_file'
p169
S'caffe_output.log'
p170
sS'solver_file'
p171
S'solver.prototxt'
p172
sS'val_outputs'
p173
g22
((lp174
(lp175
g25
ag0
(g26
g27
(g28
(lp176
I0
aF1.0
aF1.0099431818181819
aF2.0
atp177
tp178
Rp179
aa(lp180
S'accuracy'
p181
ag0
(g26
g27
(S'Accuracy'
p182
(lp183
(lp184
F0.0776919
aF0.10068
aaF0.981743
aF0.981876
a(lp185
F0.983409
aF0.982609
aatp186
tp187
Rp188
aa(lp189
S'loss'
p190
ag0
(g26
g27
(S'SoftmaxWithLoss'
p191
(lp192
(lp193
F2.69787
aF2.92517
aaF0.0555807
aF0.0578369
a(lp194
F0.0504416
aF0.0523865
aatp195
tp196
Rp197
aatp198
Rp199
sbasS'pickver_job'
p200
I2
sS'dataset_id'
p201
S'20161125-161231-08c0'
p202
sS'pickver_job_model_image'
p203
I1
sg121
NsS'group'
p204
V
p205
sS'persistent'
p206
I01
sS'_name'
p207
Vlenet
p208
sS'form_data'
p209
(dp210
S'form.standard_networks.data'
p211
Vlenet
p212
sS'form.learning_rate.data'
p213
(lp214
F0.01
asS'form.model_name.data'
p215
g208
sS'form.aug_flip.data'
p216
g127
sS'form.select_gpus.data'
p217
(lp218
sS'form.framework.data'
p219
Vcaffe
p220
sS'form.dataset.data'
p221
V20161125-161231-08c0
p222
sS'form.python_layer_from_client.data'
p223
I00
sS'form.lr_multistep_values.data'
p224
V50,85
p225
sS'form.aug_hsv_s.data'
p226
F0.04
sS'form.lr_sigmoid_gamma.data'
p227
F0.1
sS'form.lr_policy.data'
p228
g101
sS'form.random_seed.data'
p229
NsS'form.previous_networks.data'
p230
VNone
p231
sS'form.aug_quad_rot.data'
p232
g129
sS'form.rms_decay.data'
p233
F0.99
sS'form.method.data'
p234
Vstandard
p235
sS'form.lr_sigmoid_step.data'
p236
F50.0
sS'form.crop_size.data'
p237
NsS'form.select_gpu_count.data'
p238
I1
sS'form.python_layer_server_file.data'
p239
g205
sS'form.pretrained_networks.data'
p240
VNone
p241
sS'form.solver_type.data'
p242
g74
sS'form.aug_noise.data'
p243
F0.0
sS'form.select_gpus_list.data'
p244
g205
sS'form.shuffle.data'
p245
I01
sS'form.aug_scale.data'
p246
F0.0
sS'form.batch_accumulation.data'
p247
NsS'form.custom_network.data'
p248
g205
sS'form.group_name.data'
p249
g205
sS'form.val_interval.data'
p250
F1.0
sS'form.lr_inv_gamma.data'
p251
F0.1
sS'form.lr_poly_power.data'
p252
F3.0
sS'form.snapshot_interval.data'
p253
F1.0
sS'form.lr_step_size.data'
p254
F33.0
sS'form.aug_hsv_use.data'
p255
I00
sS'form.lr_inv_power.data'
p256
F0.5
sS'form.aug_hsv_v.data'
p257
F0.06
sS'form.custom_network_snapshot.data'
p258
g205
sS'form.lr_step_gamma.data'
p259
F0.1
sS'form.lr_multistep_gamma.data'
p260
F0.5
sS'form.select_gpu.data'
p261
Vnext
p262
sS'form.lr_exp_gamma.data'
p263
F0.95
sS'form.use_mean.data'
p264
g88
sS'form.aug_rot.data'
p265
I0
sS'form.train_epochs.data'
p266
I2
sS'form.batch_size.data'
p267
(lp268
NasS'form.aug_hsv_h.data'
p269
F0.02
ssg97
F1.0
sS'_id'
p270
S'20161130-123714-5125'
p271
sS'pickver_job_dataset'
p272
I1
sg146
(lp273
((idigits.status
Status
p274
g150
bF1480469834.207217
tp275
a((idigits.status
Status
p276
g153
bF1480469835.48617
tp277
a((idigits.status
Status
p278
g160
bF1480469866.145599
tp279
asS'pickver_job_model_image_classification'
p280
I1
sb.