ccopy_reg
_reconstructor
p0
(cdigits.dataset.images.classification.job
ImageClassificationDatasetJob
p1
c__builtin__
object
p2
Ntp3
Rp4
(dp5
S'username'
p6
Vdigits-testsuite
p7
sS'_notes'
p8
NsS'tasks'
p9
(lp10
g0
(cdigits.dataset.tasks.parse_folder
ParseFolderTask
p11
g2
Ntp12
Rp13
(dp14
S'node'
p15
S''
p16
sS'time_limit'
p17
NsS'percent_test'
p18
F0.0
sS'train_count'
p19
NsS'percent_val'
p20
F25.0
sS'val_file'
p21
S'val.txt'
p22
sS'job_num'
p23
S'4015431'
p24
sS'exception'
p25
NsS'pickver_task_parsefolder'
p26
I1
sS'test_count'
p27
NsS'system_type'
p28
S'slurm'
p29
sS'max_per_category'
p30
NsS'pickver_task'
p31
I1
sS's_mem'
p32
NsS'labels_file'
p33
S'labels.txt'
p34
sS'current_resources'
p35
(dp36
S'parse_folder_task_pool'
p37
(lp38
(I46913983164688
I1
tp39
assS'job_id'
p40
S'20161209-102520-2351'
p41
sS'train_file'
p42
S'train.txt'
p43
sS'traceback'
p44
NsS'label_count'
p45
NsS'job_dir'
p46
S'/data/zim021/digits-proj/DIGITS/tmpbESqUM/20161209-102520-2351'
p47
sS's_cpu_count'
p48
NsS'parents'
p49
NsS'progress'
p50
I0
sS'folder'
p51
V/tmp/zim021.1042/tmpG_xY54
p52
sS'min_per_category'
p53
I2
sS'val_count'
p54
NsS'status_history'
p55
(lp56
((idigits.status
Status
p57
S'I'
p59
bF1481239520.786838
tp60
a((idigits.status
Status
p61
S'R'
p62
bF1481239520.800589
tp63
asbag0
(cdigits.dataset.tasks.create_db
CreateDbTask
p64
g2
Ntp65
Rp66
(dp67
g17
I0
sS'shuffle'
p68
I01
sS'pickver_task_createdb'
p69
I3
sS'encoding'
p70
Vpng
p71
sg23
g16
sS'resize_mode'
p72
Vsquash
p73
sg28
g29
sS'entries_count'
p74
NsS'backend'
p75
Vlmdb
p76
sg32
I10
sS'compression'
p77
S'none'
p78
sg46
g47
sg49
(lp79
g13
asg50
I0
sg15
g16
sg33
g34
sS'input_file'
p80
g43
sS'image_dims'
p81
(I10
I10
I3
tp82
sS'db_name'
p83
S'train_db'
p84
sg31
I1
sS'image_folder'
p85
Nsg40
S'20161209-102520-2351'
p86
sg25
Nsg44
NsS'mean_file'
p87
S'mean.binaryproto'
p88
sg48
I8
sS'image_channel_order'
p89
S'BGR'
p90
sS'create_db_log_file'
p91
S'create_train_db.log'
p92
sS'distribution'
p93
Nsg55
(lp94
((idigits.status
Status
p95
g59
bF1481239520.786959
tp96
asbag0
(g64
g2
Ntp97
Rp98
(dp99
g17
I0
sg68
I01
sg69
I3
sg70
g71
sg23
g16
sg72
g73
sg28
g29
sg74
Nsg75
g76
sg32
I10
sg77
g78
sg46
g47
sg49
(lp100
g13
asg50
I0
sg15
g16
sg33
g34
sg80
g22
sg81
g82
sg83
S'val_db'
p101
sg31
I1
sg85
Nsg40
S'20161209-102520-2351'
p102
sg25
Nsg44
Nsg87
Nsg48
I8
sg89
g90
sg91
S'create_val_db.log'
p103
sg93
Nsg55
(lp104
((idigits.status
Status
p105
g59
bF1481239520.787031
tp106
asbasg33
g34
sg81
g82
sg72
g73
sS'pickver_job'
p107
I2
sS'pickver_job_dataset_image'
p108
I1
sg25
NsS'group'
p109
Vtest_group
p110
sS'pickver_job_dataset'
p111
I1
sS'persistent'
p112
I01
sS'_name'
p113
Vtest_dataset
p114
sS'form_data'
p115
(dp116
S'form.compression.data'
p117
g78
sS'form.textfile_labels_file.data'
p118
V
p119
sS'form.textfile_local_train_images.data'
p120
g119
sS'form.resize_height.data'
p121
I10
sS'form.folder_train.data'
p122
g52
sS'form.folder_val_max_per_class.data'
p123
NsS'form.folder_train_min_per_class.data'
p124
I2
sS'form.textfile_val_folder.data'
p125
g119
sS'form.slurm_mem.data'
p126
I10
sS'form.slurm_time_limit.data'
p127
I0
sS'form.backend.data'
p128
g76
sS'form.slurm_selector.data'
p129
I00
sS'form.has_test_folder.data'
p130
I00
sS'form.folder_test_max_per_class.data'
p131
NsS'form.textfile_train_images.data'
p132
g119
sS'form.folder_train_max_per_class.data'
p133
NsS'form.folder_val.data'
p134
g119
sS'form.textfile_use_test.data'
p135
I00
sS'form.folder_val_min_per_class.data'
p136
I2
sS'form.has_val_folder.data'
p137
I00
sS'form.textfile_local_labels_file.data'
p138
g119
sS'form.textfile_use_local_files.data'
p139
I00
sS'form.textfile_local_val_images.data'
p140
g119
sS'form.textfile_test_images.data'
p141
g119
sS'form.dataset_name.data'
p142
g114
sS'form.resize_width.data'
p143
I10
sS'form.textfile_train_folder.data'
p144
g119
sS'form.slurm_cpu_count.data'
p145
I8
sS'form.group_name.data'
p146
g110
sS'form.folder_test.data'
p147
g119
sS'form.folder_test_min_per_class.data'
p148
I2
sS'form.textfile_shuffle.data'
p149
I1
sS'form.folder_pct_val.data'
p150
I25
sS'form.resize_mode.data'
p151
g73
sS'form.resize_channels.data'
p152
V3
p153
sS'form.method.data'
p154
Vfolder
p155
sS'form.textfile_test_folder.data'
p156
g119
sS'form.folder_pct_test.data'
p157
I0
sS'form.encoding.data'
p158
g71
sS'form.textfile_use_val.data'
p159
I00
sS'form.textfile_val_images.data'
p160
g119
sS'form.textfile_local_test_images.data'
p161
g119
ssg50
I0
sS'_id'
p162
S'20161209-102520-2351'
p163
sS'pickver_job_dataset_image_classification'
p164
I2
sg55
(lp165
((idigits.status
Status
p166
g59
bF1481239520.775274
tp167
a((idigits.status
Status
p168
g62
bF1481239520.79899
tp169
asb.